(lp0
(lp1
I101
aI295
aI279
aI103
aI77
aI72
aI296
aI288
aI265
aI100
aI159
aI285
aI1284
aI282
aI302
aI275
aI263
aI262
aI269
aI300
aI303
aI301
aI277
aI267
aI259
aI221
aI297
aI280
aI261
aI299
aI294
aI290
aI264
aI284
aI273
aI1037
aI577
aI293
aI292
aI291
aI289
aI286
aI283
aI278
aI276
aI274
aI270
aI266
aI545
aI1278
aa(lp2
I1037
aI11
aI207
aI53
aI577
aI20
aI147
aI186
aI108
aI288
aI365
aI244
aI1088
aI353
aI363
aI465
aI346
aI369
aI36
aI396
aI545
aI1066
aI1515
aI1032
aI230
aI359
aI457
aI2065
aI214
aI72
aI1091
aI102
aI543
aI146
aI3137
aI101
aI119
aI315
aI44
aI746
aI375
aI279
aI45
aI698
aI27
aI504
aI1079
aI41
aI322
aI333
aa(lp3
I108
aI1037
aI577
aI11
aI186
aI295
aI53
aI103
aI1733
aI101
aI279
aI1243
aI1032
aI450
aI31
aI20
aI365
aI457
aI363
aI1088
aI72
aI207
aI288
aI346
aI370
aI315
aI369
aI100
aI396
aI296
aI2009
aI1091
aI465
aI45
aI77
aI545
aI244
aI375
aI2138
aI27
aI265
aI984
aI543
aI757
aI418
aI398
aI1066
aI230
aI746
aI2029
aa(lp4
I1037
aI147
aI11
aI288
aI244
aI101
aI1515
aI359
aI279
aI103
aI322
aI265
aI53
aI230
aI20
aI545
aI300
aI72
aI353
aI577
aI73
aI241
aI36
aI365
aI363
aI369
aI282
aI346
aI256
aI295
aI214
aI253
aI1032
aI303
aI159
aI77
aI2182
aI100
aI207
aI302
aI44
aI263
aI285
aI146
aI296
aI1066
aI41
aI186
aI258
aI262
aa(lp5
I101
aI265
aI279
aI296
aI77
aI159
aI302
aI275
aI285
aI282
aI262
aI288
aI295
aI100
aI103
aI72
aI301
aI267
aI263
aI269
aI297
aI300
aI277
aI280
aI264
aI303
aI294
aI299
aI261
aI284
aI290
aI273
aI293
aI292
aI291
aI289
aI286
aI283
aI278
aI276
aI274
aI266
aI259
aI270
aI271
aI260
aI545
aI615
aI622
aI614
aa(lp6
I1037
aI288
aI101
aI279
aI11
aI103
aI244
aI147
aI265
aI72
aI300
aI295
aI359
aI322
aI545
aI1515
aI77
aI53
aI100
aI577
aI282
aI159
aI230
aI20
aI296
aI302
aI285
aI263
aI73
aI303
aI241
aI353
aI262
aI275
aI256
aI36
aI277
aI259
aI346
aI299
aI365
aI363
aI301
aI269
aI253
aI280
aI1032
aI207
aI261
aI369
aa(lp7
I1037
aI207
aI11
aI53
aI20
aI577
aI147
aI186
aI108
aI1088
aI288
aI365
aI244
aI363
aI465
aI353
aI346
aI369
aI396
aI36
aI1515
aI545
aI1066
aI1032
aI230
aI457
aI214
aI2065
aI1091
aI359
aI102
aI146
aI72
aI3137
aI119
aI315
aI746
aI543
aI45
aI27
aI375
aI44
aI698
aI504
aI279
aI41
aI1079
aI333
aI101
aI15
aa(lp8
I1037
aI577
aI11
aI288
aI53
aI207
aI20
aI108
aI186
aI101
aI279
aI72
aI295
aI103
aI147
aI244
aI545
aI365
aI363
aI1088
aI346
aI77
aI100
aI369
aI465
aI353
aI396
aI265
aI1032
aI303
aI300
aI1066
aI282
aI457
aI296
aI1515
aI230
aI36
aI1091
aI1733
aI159
aI102
aI269
aI2065
aI1284
aI359
aI285
aI315
aI543
aI375
aa(lp9
I1037
aI207
aI11
aI53
aI20
aI577
aI147
aI186
aI108
aI288
aI1088
aI365
aI244
aI363
aI353
aI465
aI346
aI369
aI36
aI396
aI545
aI1515
aI1066
aI1032
aI230
aI457
aI2065
aI214
aI359
aI1091
aI102
aI72
aI146
aI3137
aI543
aI119
aI315
aI746
aI44
aI375
aI45
aI698
aI27
aI504
aI101
aI279
aI41
aI1079
aI333
aI15
aa(lp10
I101
aI265
aI279
aI296
aI77
aI288
aI159
aI282
aI302
aI285
aI103
aI275
aI262
aI295
aI100
aI72
aI300
aI301
aI263
aI269
aI267
aI303
aI277
aI297
aI280
aI299
aI261
aI264
aI290
aI294
aI284
aI259
aI273
aI293
aI292
aI291
aI289
aI286
aI283
aI278
aI276
aI274
aI266
aI270
aI271
aI260
aI545
aI615
aI622
aI614
aa(lp11
I5111
aI5238
aI5237
aI5236
aI5235
aI5234
aI5233
aI5232
aI5231
aI5230
aI5229
aI5228
aI5227
aI5220
aI5219
aI5218
aI5217
aI5216
aI5215
aI5214
aI5213
aI5208
aI5207
aI5206
aI5205
aI5204
aI5203
aI5201
aI5200
aI5196
aI5195
aI5193
aI5192
aI5190
aI5189
aI5182
aI5181
aI5180
aI5179
aI5178
aI5177
aI5173
aI5172
aI5167
aI5166
aI5150
aI5149
aI5140
aI5139
aI5134
aa(lp12
I101
aI279
aI265
aI288
aI77
aI296
aI159
aI282
aI302
aI103
aI285
aI295
aI275
aI72
aI100
aI262
aI300
aI301
aI263
aI269
aI303
aI267
aI277
aI297
aI280
aI299
aI261
aI264
aI294
aI290
aI284
aI259
aI273
aI293
aI292
aI291
aI289
aI286
aI283
aI278
aI276
aI274
aI266
aI270
aI271
aI260
aI545
aI615
aI622
aI614
aa(lp13
I108
aI1037
aI577
aI11
aI295
aI186
aI53
aI103
aI101
aI279
aI1733
aI1032
aI20
aI1243
aI31
aI365
aI288
aI363
aI72
aI207
aI450
aI1088
aI457
aI346
aI369
aI315
aI370
aI100
aI396
aI296
aI1091
aI77
aI244
aI465
aI545
aI45
aI265
aI230
aI27
aI2009
aI375
aI1066
aI543
aI984
aI746
aI159
aI398
aI2065
aI285
aI322
aa(lp14
I295
aI101
aI279
aI103
aI288
aI72
aI296
aI100
aI77
aI265
aI159
aI285
aI269
aI282
aI263
aI275
aI302
aI262
aI303
aI300
aI301
aI261
aI277
aI259
aI267
aI280
aI290
aI297
aI294
aI273
aI264
aI299
aI284
aI293
aI292
aI291
aI289
aI286
aI283
aI278
aI276
aI274
aI266
aI270
aI271
aI260
aI108
aI1037
aI577
aI545
aa(lp15
I108
aI1037
aI577
aI11
aI295
aI186
aI103
aI53
aI101
aI279
aI1733
aI1032
aI20
aI288
aI72
aI1243
aI31
aI365
aI363
aI207
aI450
aI1088
aI457
aI346
aI100
aI369
aI315
aI370
aI296
aI77
aI396
aI244
aI1091
aI545
aI465
aI265
aI45
aI230
aI27
aI1066
aI2009
aI375
aI159
aI543
aI984
aI746
aI398
aI285
aI2065
aI322
aa.