(lp0
(lp1
I14
aI363
aI1867
aI1677
aI530
aI185
aI40
aI230
aI30
aI132
aI323
aI2776
aI23
aI529
aI2510
aI114
aI140
aI1016
aI4971
aI36
aI2137
aI8499
aI27
aI173
aI124
aI150
aI24
aI220
aI1960
aI73
aI1961
aI183
aI697
aI357
aI1530
aI292
aI231
aI2743
aI186
aI316
aI1590
aI131
aI157
aI717
aI0
aI540
aI2136
aI335
aI763
aI500
aa(lp2
I40
aI1677
aI1867
aI697
aI363
aI500
aI357
aI1590
aI185
aI709
aI2776
aI8499
aI530
aI2977
aI2150
aI743
aI1016
aI14
aI316
aI2256
aI230
aI487
aI4971
aI8491
aI4125
aI73
aI132
aI140
aI2510
aI4960
aI4275
aI1961
aI186
aI30
aI1937
aI23
aI717
aI2660
aI2136
aI1530
aI271
aI183
aI27
aI715
aI3256
aI2600
aI502
aI2743
aI1014
aI131
aa(lp3
I14
aI185
aI529
aI230
aI114
aI132
aI530
aI36
aI1960
aI2136
aI323
aI1961
aI124
aI73
aI540
aI335
aI173
aI492
aI23
aI275
aI542
aI150
aI131
aI615
aI372
aI563
aI277
aI55
aI174
aI2137
aI24
aI2902
aI140
aI489
aI30
aI183
aI157
aI231
aI165
aI380
aI60
aI269
aI1139
aI186
aI2158
aI1972
aI1783
aI512
aI220
aI40
aa(lp4
I14
aI185
aI132
aI230
aI530
aI529
aI114
aI124
aI36
aI323
aI73
aI275
aI335
aI1960
aI615
aI183
aI131
aI40
aI542
aI150
aI165
aI24
aI277
aI55
aI186
aI140
aI489
aI30
aI294
aI23
aI292
aI1139
aI492
aI269
aI157
aI1961
aI372
aI1783
aI174
aI173
aI220
aI380
aI357
aI703
aI163
aI15
aI231
aI2137
aI2646
aI141
aa(lp5
I14
aI150
aI157
aI185
aI30
aI23
aI36
aI27
aI26
aI70
aI173
aI292
aI140
aI15
aI77
aI210
aI86
aI24
aI73
aI154
aI114
aI174
aI99
aI155
aI131
aI323
aI158
aI344
aI357
aI8
aI335
aI434
aI25
aI44
aI530
aI57
aI380
aI208
aI0
aI275
aI165
aI100
aI98
aI132
aI68
aI97
aI171
aI124
aI199
aI374
aa(lp6
I14
aI185
aI530
aI132
aI230
aI529
aI114
aI323
aI124
aI36
aI73
aI1960
aI335
aI150
aI275
aI183
aI24
aI131
aI615
aI40
aI140
aI30
aI23
aI542
aI165
aI277
aI55
aI489
aI186
aI220
aI157
aI292
aI294
aI492
aI1961
aI173
aI1139
aI174
aI2137
aI372
aI231
aI269
aI380
aI2510
aI1783
aI357
aI15
aI703
aI163
aI154
aa(lp7
I40
aI1677
aI1867
aI697
aI363
aI500
aI357
aI1590
aI2776
aI8499
aI2977
aI709
aI185
aI530
aI2150
aI1016
aI2256
aI14
aI743
aI316
aI4971
aI8491
aI230
aI4125
aI487
aI73
aI4960
aI132
aI4275
aI140
aI2510
aI2660
aI2136
aI1961
aI717
aI1937
aI1530
aI2743
aI23
aI186
aI271
aI30
aI2600
aI4557
aI362
aI502
aI1014
aI3256
aI183
aI715
aa(lp8
I14
aI185
aI530
aI132
aI230
aI529
aI114
aI323
aI124
aI36
aI73
aI1960
aI335
aI150
aI275
aI183
aI24
aI131
aI615
aI40
aI140
aI30
aI23
aI542
aI165
aI277
aI55
aI489
aI186
aI220
aI157
aI292
aI294
aI492
aI1961
aI173
aI1139
aI174
aI2137
aI372
aI231
aI269
aI380
aI2510
aI1783
aI357
aI15
aI703
aI163
aI154
aa(lp9
I5
aI75878
aI75877
aI75876
aI75875
aI75874
aI75873
aI75872
aI75871
aI75870
aI75869
aI75868
aI75865
aI75864
aI75863
aI75862
aI75861
aI75860
aI75859
aI75858
aI75857
aI75856
aI75855
aI75854
aI75853
aI75852
aI75851
aI75850
aI75849
aI75848
aI75847
aI75846
aI75845
aI75844
aI75843
aI75842
aI75841
aI75839
aI75838
aI75837
aI75836
aI75835
aI75834
aI75833
aI75832
aI75831
aI75829
aI75828
aI75827
aI75826
aa(lp10
I5
aI75878
aI75877
aI75876
aI75875
aI75874
aI75873
aI75872
aI75865
aI75864
aI75863
aI75862
aI75861
aI75860
aI75859
aI75858
aI75857
aI75856
aI75855
aI75854
aI75853
aI75852
aI75851
aI75850
aI75849
aI75844
aI75843
aI75842
aI75839
aI75838
aI75837
aI75836
aI75835
aI75834
aI75833
aI75832
aI75831
aI75829
aI75828
aI75827
aI75826
aI75824
aI75823
aI75822
aI75821
aI75820
aI75819
aI75807
aI75806
aI75805
aa(lp11
I14
aI185
aI530
aI132
aI230
aI529
aI114
aI323
aI124
aI36
aI73
aI1960
aI335
aI150
aI275
aI183
aI24
aI131
aI615
aI40
aI140
aI30
aI23
aI542
aI165
aI277
aI55
aI489
aI186
aI220
aI157
aI292
aI294
aI492
aI1961
aI173
aI1139
aI174
aI2137
aI372
aI231
aI269
aI380
aI2510
aI1783
aI357
aI15
aI703
aI163
aI154
aa(lp12
I14
aI185
aI530
aI132
aI230
aI529
aI114
aI323
aI124
aI36
aI73
aI1960
aI335
aI150
aI275
aI183
aI24
aI131
aI615
aI40
aI140
aI30
aI23
aI542
aI165
aI277
aI55
aI489
aI186
aI220
aI157
aI292
aI294
aI492
aI1961
aI173
aI1139
aI174
aI2137
aI372
aI231
aI269
aI380
aI2510
aI1783
aI357
aI15
aI703
aI163
aI154
aa(lp13
I5
aI75878
aI75877
aI75876
aI75875
aI75874
aI75873
aI75872
aI75865
aI75864
aI75863
aI75862
aI75861
aI75860
aI75859
aI75858
aI75857
aI75856
aI75855
aI75854
aI75853
aI75852
aI75851
aI75850
aI75849
aI75844
aI75843
aI75842
aI75839
aI75838
aI75837
aI75836
aI75835
aI75834
aI75833
aI75832
aI75831
aI75829
aI75828
aI75827
aI75826
aI75824
aI75823
aI75822
aI75821
aI75820
aI75819
aI75807
aI75806
aI75805
aa(lp14
I5
aI75878
aI75877
aI75876
aI75875
aI75874
aI75873
aI75872
aI75865
aI75864
aI75863
aI75862
aI75861
aI75860
aI75859
aI75858
aI75857
aI75856
aI75855
aI75854
aI75853
aI75852
aI75851
aI75850
aI75849
aI75844
aI75843
aI75842
aI75839
aI75838
aI75837
aI75836
aI75835
aI75834
aI75833
aI75832
aI75831
aI75829
aI75828
aI75827
aI75826
aI75825
aI75824
aI75823
aI75822
aI75821
aI75820
aI75819
aI75817
aI75807
aa(lp15
I14
aI185
aI530
aI132
aI230
aI529
aI114
aI323
aI124
aI36
aI73
aI1960
aI335
aI150
aI275
aI183
aI24
aI131
aI615
aI40
aI140
aI30
aI23
aI542
aI165
aI277
aI55
aI489
aI186
aI220
aI157
aI292
aI294
aI492
aI1961
aI173
aI1139
aI174
aI2137
aI372
aI231
aI269
aI380
aI2510
aI1783
aI357
aI15
aI703
aI163
aI154
aa.