(lp0
(lp1
I27
aI45
aI26
aI6
aI4
aI3
aI62
aI36
aI66
aI55
aI32
aI67
aI53
aI39
aI20
aI15
aI14
aI44
aI42
aI38
aI33
aI43
aI31
aI30
aI18
aI61
aI52
aI35
aI34
aI11
aI65
aI49
aI47
aI41
aI29
aI21
aI12
aI8
aI58
aI57
aI40
aI37
aI19
aI10
aI64
aI63
aI60
aI54
aI48
aI24
aa(lp2
I36
aI56
aI14
aI20
aI26
aI45
aI21
aI15
aI53
aI39
aI55
aI3
aI4
aI64
aI28
aI17
aI30
aI18
aI31
aI38
aI43
aI32
aI8
aI19
aI6
aI52
aI27
aI37
aI49
aI25
aI62
aI48
aI0
aI60
aI11
aI24
aI54
aI12
aI13
aI40
aI16
aI41
aI61
aI29
aI33
aI66
aI58
aI22
aI34
aI35
aa(lp3
I27
aI45
aI66
aI67
aI44
aI42
aI65
aI6
aI4
aI36
aI26
aI35
aI43
aI3
aI41
aI32
aI38
aI33
aI15
aI55
aI62
aI20
aI30
aI34
aI61
aI31
aI29
aI24
aI53
aI69
aI14
aI48
aI60
aI64
aI12
aI52
aI54
aI21
aI13
aI18
aI68
aI51
aI56
aI25
aI40
aI37
aI8
aI11
aI16
aI10
aa(lp4
I27
aI45
aI36
aI42
aI44
aI35
aI66
aI67
aI6
aI33
aI32
aI31
aI43
aI64
aI41
aI65
aI26
aI69
aI55
aI56
aI15
aI62
aI4
aI3
aI48
aI14
aI54
aI60
aI40
aI61
aI39
aI37
aI13
aI51
aI20
aI16
aI30
aI29
aI38
aI68
aI25
aI34
aI8
aI12
aI21
aI24
aI10
aI28
aI11
aI52
aa(lp5
I45
aI66
aI67
aI44
aI27
aI42
aI65
aI35
aI41
aI64
aI43
aI69
aI36
aI68
aI56
aI31
aI40
aI54
aI33
aI32
aI39
aI6
aI28
aI62
aI60
aI48
aI55
aI26
aI61
aI37
aI15
aI51
aI13
aI14
aI4
aI3
aI30
aI34
aI12
aI29
aI16
aI38
aI11
aI59
aI20
aI10
aI63
aI25
aI52
aI24
aa(lp6
I27
aI45
aI36
aI6
aI42
aI26
aI44
aI35
aI4
aI3
aI66
aI67
aI33
aI32
aI15
aI55
aI62
aI31
aI43
aI38
aI41
aI65
aI20
aI61
aI14
aI64
aI30
aI69
aI24
aI48
aI29
aI56
aI21
aI60
aI34
aI40
aI16
aI13
aI54
aI12
aI53
aI25
aI8
aI37
aI18
aI51
aI39
aI52
aI68
aI10
aa(lp7
I36
aI56
aI14
aI20
aI26
aI45
aI21
aI15
aI39
aI53
aI55
aI64
aI4
aI30
aI3
aI18
aI28
aI17
aI31
aI43
aI32
aI8
aI19
aI38
aI52
aI6
aI37
aI27
aI49
aI24
aI25
aI0
aI48
aI11
aI62
aI60
aI54
aI12
aI16
aI13
aI40
aI29
aI41
aI61
aI33
aI58
aI66
aI22
aI34
aI35
aa(lp8
I46
aI9
aI7
aI5
aI47
aI2
aI23
aI1
aI0
aI49
aI22
aI57
aI58
aI50
aI59
aI63
aI28
aI19
aI11
aI17
aI10
aI68
aI52
aI39
aI51
aI18
aI37
aI8
aI25
aI53
aI12
aI54
aI13
aI16
aI40
aI34
aI60
aI21
aI56
aI29
aI48
aI24
aI69
aI30
aI64
aI14
aI61
aI20
aI65
aI41
aa(lp9
I5
aI68
aI46
aI9
aI7
aI23
aI65
aI50
aI63
aI59
aI67
aI1
aI10
aI42
aI2
aI44
aI47
aI57
aI69
aI51
aI35
aI34
aI22
aI66
aI58
aI33
aI61
aI29
aI41
aI40
aI16
aI13
aI12
aI54
aI60
aI11
aI62
aI48
aI0
aI24
aI25
aI49
aI27
aI37
aI6
aI52
aI19
aI38
aI8
aI32
aa(lp10
I46
aI9
aI7
aI5
aI47
aI2
aI23
aI1
aI0
aI49
aI22
aI58
aI57
aI50
aI59
aI63
aI28
aI19
aI11
aI17
aI10
aI68
aI52
aI39
aI51
aI18
aI37
aI8
aI25
aI53
aI12
aI54
aI13
aI16
aI40
aI34
aI60
aI21
aI56
aI29
aI48
aI24
aI69
aI30
aI64
aI14
aI61
aI20
aI65
aI41
aa(lp11
I5
aI46
aI9
aI7
aI2
aI47
aI1
aI23
aI0
aI58
aI57
aI50
aI22
aI49
aI19
aI63
aI53
aI59
aI17
aI18
aI52
aI11
aI28
aI10
aI24
aI21
aI12
aI8
aI34
aI25
aI38
aI29
aI30
aI16
aI20
aI51
aI13
aI37
aI61
aI39
aI40
aI60
aI68
aI54
aI14
aI48
aI3
aI4
aI62
aI15
aa(lp12
I46
aI9
aI7
aI5
aI47
aI2
aI23
aI1
aI0
aI49
aI22
aI58
aI57
aI50
aI59
aI63
aI28
aI19
aI11
aI17
aI10
aI68
aI52
aI39
aI51
aI18
aI37
aI8
aI25
aI53
aI12
aI54
aI13
aI16
aI40
aI34
aI60
aI21
aI56
aI29
aI48
aI24
aI69
aI30
aI64
aI14
aI61
aI20
aI65
aI41
aa(lp13
I5
aI46
aI9
aI7
aI23
aI63
aI50
aI59
aI1
aI68
aI47
aI10
aI2
aI57
aI51
aI69
aI22
aI58
aI34
aI65
aI16
aI40
aI35
aI29
aI13
aI61
aI0
aI11
aI54
aI12
aI33
aI60
aI24
aI41
aI48
aI49
aI25
aI62
aI42
aI67
aI44
aI37
aI52
aI19
aI66
aI8
aI6
aI32
aI38
aI18
aa(lp14
I5
aI46
aI9
aI7
aI2
aI1
aI47
aI23
aI50
aI0
aI57
aI58
aI22
aI49
aI63
aI59
aI19
aI10
aI11
aI52
aI18
aI68
aI17
aI24
aI34
aI53
aI12
aI51
aI29
aI25
aI16
aI28
aI13
aI61
aI8
aI37
aI40
aI38
aI60
aI54
aI30
aI21
aI48
aI62
aI69
aI65
aI39
aI41
aI20
aI33
aa(lp15
I5
aI46
aI9
aI7
aI2
aI1
aI47
aI23
aI50
aI0
aI57
aI58
aI22
aI49
aI63
aI59
aI19
aI10
aI11
aI52
aI18
aI68
aI17
aI24
aI34
aI53
aI12
aI51
aI29
aI25
aI16
aI28
aI13
aI61
aI8
aI37
aI40
aI38
aI60
aI54
aI30
aI21
aI48
aI62
aI69
aI65
aI39
aI41
aI20
aI33
aa(lp16
I46
aI9
aI7
aI5
aI47
aI2
aI23
aI1
aI0
aI49
aI22
aI57
aI58
aI50
aI59
aI63
aI28
aI19
aI11
aI17
aI10
aI68
aI52
aI39
aI51
aI18
aI37
aI8
aI25
aI53
aI12
aI54
aI13
aI16
aI40
aI34
aI60
aI21
aI56
aI29
aI48
aI24
aI69
aI30
aI64
aI14
aI61
aI20
aI65
aI41
aa.