(lp0
(lp1
I101
aI572
aI714
aI835
aI1936
aI66
aI2055
aI2038
aI607
aI2040
aI931
aI604
aI123
aI1744
aI1955
aI1043
aI741
aI836
aI794
aI1903
aI790
aI2093
aI1911
aI268
aI2151
aI1229
aI214
aI620
aI577
aI196
aI1830
aI124
aI147
aI132
aI347
aI687
aI208
aI2086
aI410
aI925
aI1322
aI1204
aI802
aI131
aI98
aI166
aI2089
aI2088
aI686
aI791
aa(lp2
I101
aI572
aI714
aI1043
aI794
aI1911
aI1744
aI741
aI1903
aI1830
aI155
aI607
aI123
aI132
aI1321
aI1174
aI1936
aI686
aI1137
aI98
aI268
aI66
aI214
aI196
aI791
aI995
aI2183
aI148
aI802
aI1325
aI2394
aI329
aI395
aI963
aI1957
aI2300
aI1982
aI1135
aI258
aI1204
aI1229
aI115
aI1227
aI1837
aI337
aI1322
aI986
aI2089
aI1604
aI1154
aa(lp3
I2538
aI2537
aI2536
aI2534
aI2533
aI2532
aI2531
aI2530
aI2527
aI2524
aI2519
aI2516
aI2511
aI2504
aI2492
aI2487
aI2481
aI2480
aI2474
aI2446
aI2432
aI2413
aI2392
aI2383
aI2350
aI2272
aI2255
aI2118
aI2021
aI1996
aI1978
aI1975
aI1974
aI1970
aI1968
aI1956
aI1946
aI1940
aI1937
aI1933
aI1932
aI1926
aI1921
aI1920
aI1919
aI1912
aI1904
aI1894
aI1892
aI1878
aa(lp4
I101
aI835
aI572
aI66
aI714
aI931
aI1936
aI607
aI794
aI1744
aI2038
aI214
aI1043
aI123
aI2055
aI604
aI577
aI268
aI790
aI1911
aI836
aI147
aI741
aI2093
aI2040
aI1830
aI1322
aI620
aI1903
aI2086
aI617
aI1955
aI1229
aI237
aI208
aI132
aI321
aI410
aI925
aI806
aI1287
aI1053
aI155
aI687
aI791
aI802
aI124
aI1957
aI1321
aI347
aa(lp5
I101
aI572
aI714
aI794
aI1043
aI607
aI1911
aI741
aI1744
aI1903
aI123
aI1830
aI155
aI132
aI1936
aI66
aI686
aI1321
aI98
aI196
aI214
aI791
aI268
aI1174
aI1204
aI1229
aI802
aI620
aI1322
aI148
aI995
aI963
aI395
aI836
aI1957
aI1137
aI1837
aI1135
aI124
aI604
aI329
aI115
aI2183
aI2089
aI1955
aI1451
aI700
aI431
aI877
aI166
aa(lp6
I2055
aI2040
aI2038
aI2151
aI2106
aI2088
aI2085
aI2235
aI101
aI572
aI1955
aI2234
aI2150
aI1936
aI2084
aI714
aI2105
aI2104
aI794
aI1043
aI1911
aI2089
aI607
aI1744
aI741
aI1903
aI1830
aI155
aI123
aI66
aI132
aI1321
aI2259
aI686
aI1174
aI98
aI1837
aI1322
aI1038
aI2148
aI268
aI1137
aI2091
aI2093
aI214
aI196
aI791
aI620
aI995
aI148
aa(lp7
I101
aI572
aI714
aI794
aI1043
aI607
aI1911
aI741
aI1744
aI1903
aI123
aI1830
aI155
aI1936
aI132
aI66
aI686
aI1321
aI196
aI214
aI98
aI268
aI791
aI1204
aI1229
aI1174
aI802
aI395
aI620
aI148
aI836
aI1322
aI995
aI604
aI1957
aI963
aI1135
aI124
aI1137
aI1837
aI329
aI2089
aI115
aI1955
aI2183
aI303
aI877
aI431
aI700
aI1451
aa(lp8
I101
aI572
aI835
aI66
aI714
aI931
aI1936
aI607
aI794
aI1744
aI1043
aI2038
aI123
aI214
aI268
aI2055
aI604
aI577
aI790
aI1911
aI836
aI147
aI741
aI1830
aI2093
aI2040
aI1322
aI1903
aI620
aI617
aI2086
aI1955
aI237
aI1229
aI132
aI208
aI321
aI791
aI806
aI410
aI1287
aI802
aI925
aI1053
aI155
aI124
aI1321
aI687
aI1957
aI196
aa(lp9
I101
aI572
aI714
aI794
aI1043
aI1911
aI741
aI607
aI1744
aI1903
aI123
aI1830
aI155
aI132
aI66
aI686
aI1936
aI1321
aI791
aI196
aI214
aI1174
aI268
aI98
aI802
aI1204
aI1229
aI963
aI995
aI1137
aI395
aI1135
aI1837
aI148
aI1322
aI124
aI836
aI620
aI329
aI1957
aI115
aI2183
aI604
aI1451
aI2089
aI1325
aI654
aI877
aI986
aI431
aa(lp10
I2055
aI2040
aI2038
aI2151
aI2106
aI2088
aI2085
aI2235
aI101
aI572
aI1955
aI2234
aI2150
aI2084
aI1936
aI714
aI2105
aI2104
aI1043
aI794
aI1911
aI2089
aI1744
aI607
aI741
aI1903
aI1830
aI155
aI123
aI132
aI1321
aI66
aI1174
aI686
aI2259
aI1137
aI1837
aI268
aI98
aI1038
aI1322
aI791
aI214
aI2148
aI196
aI2091
aI2093
aI995
aI2183
aI148
aa(lp11
I101
aI572
aI714
aI794
aI1043
aI1911
aI607
aI741
aI1744
aI1903
aI123
aI1830
aI132
aI155
aI1936
aI66
aI686
aI1321
aI196
aI268
aI791
aI214
aI1174
aI98
aI1229
aI1204
aI802
aI395
aI1137
aI995
aI963
aI1135
aI148
aI836
aI124
aI1837
aI1322
aI1957
aI620
aI329
aI604
aI115
aI2183
aI2089
aI1325
aI877
aI1955
aI1451
aI258
aI431
aa.