(lp0
(lp1
I1037
aI207
aI11
aI53
aI20
aI577
aI147
aI186
aI108
aI288
aI1088
aI365
aI244
aI363
aI353
aI465
aI346
aI369
aI36
aI396
aI545
aI1515
aI1066
aI1032
aI230
aI457
aI2065
aI214
aI359
aI1091
aI102
aI72
aI146
aI3137
aI543
aI119
aI315
aI746
aI44
aI375
aI45
aI698
aI27
aI504
aI101
aI279
aI41
aI1079
aI333
aI15
aa(lp2
I101
aI265
aI279
aI296
aI77
aI288
aI159
aI282
aI302
aI285
aI103
aI275
aI262
aI295
aI100
aI72
aI300
aI301
aI263
aI269
aI267
aI303
aI277
aI297
aI280
aI299
aI261
aI264
aI290
aI294
aI284
aI259
aI273
aI293
aI292
aI291
aI289
aI286
aI283
aI278
aI276
aI274
aI266
aI270
aI271
aI260
aI545
aI615
aI622
aI614
aa(lp3
I5111
aI5238
aI5237
aI5236
aI5235
aI5234
aI5233
aI5232
aI5231
aI5230
aI5229
aI5228
aI5227
aI5220
aI5219
aI5218
aI5217
aI5216
aI5215
aI5214
aI5213
aI5208
aI5207
aI5206
aI5205
aI5204
aI5203
aI5201
aI5200
aI5196
aI5195
aI5193
aI5192
aI5190
aI5189
aI5182
aI5181
aI5180
aI5179
aI5178
aI5177
aI5173
aI5172
aI5167
aI5166
aI5150
aI5149
aI5140
aI5139
aI5134
aa(lp4
I101
aI279
aI265
aI288
aI77
aI296
aI159
aI282
aI302
aI103
aI285
aI295
aI275
aI72
aI100
aI262
aI300
aI301
aI263
aI269
aI303
aI267
aI277
aI297
aI280
aI299
aI261
aI264
aI294
aI290
aI284
aI259
aI273
aI293
aI292
aI291
aI289
aI286
aI283
aI278
aI276
aI274
aI266
aI270
aI271
aI260
aI545
aI615
aI622
aI614
aa(lp5
I1037
aI11
aI207
aI53
aI577
aI20
aI147
aI186
aI108
aI288
aI244
aI365
aI353
aI1088
aI363
aI465
aI346
aI369
aI36
aI545
aI396
aI1515
aI1066
aI230
aI1032
aI359
aI72
aI214
aI2065
aI1091
aI457
aI102
aI101
aI146
aI543
aI279
aI44
aI119
aI315
aI746
aI45
aI698
aI375
aI504
aI41
aI27
aI322
aI1079
aI3137
aI15
aa(lp6
I288
aI1037
aI101
aI72
aI279
aI103
aI295
aI303
aI77
aI100
aI300
aI265
aI282
aI11
aI207
aI269
aI296
aI53
aI159
aI577
aI20
aI285
aI147
aI302
aI261
aI263
aI275
aI186
aI262
aI277
aI290
aI299
aI545
aI280
aI301
aI259
aI284
aI267
aI273
aI297
aI264
aI294
aI293
aI292
aI291
aI289
aI286
aI283
aI278
aI276
aa(lp7
I1037
aI11
aI207
aI53
aI577
aI20
aI147
aI186
aI108
aI288
aI244
aI365
aI353
aI1088
aI363
aI465
aI346
aI369
aI36
aI545
aI396
aI1515
aI1066
aI230
aI1032
aI359
aI72
aI214
aI2065
aI1091
aI457
aI102
aI101
aI146
aI279
aI543
aI44
aI119
aI315
aI746
aI45
aI698
aI375
aI504
aI41
aI1079
aI322
aI27
aI103
aI3137
aa(lp8
I108
aI1037
aI577
aI11
aI295
aI186
aI53
aI103
aI101
aI279
aI1733
aI1032
aI20
aI1243
aI31
aI365
aI288
aI363
aI72
aI207
aI450
aI1088
aI457
aI346
aI369
aI315
aI370
aI100
aI396
aI296
aI1091
aI77
aI244
aI465
aI545
aI45
aI265
aI230
aI27
aI2009
aI375
aI1066
aI543
aI984
aI746
aI159
aI398
aI2065
aI285
aI322
aa(lp9
I295
aI101
aI279
aI103
aI288
aI72
aI296
aI100
aI77
aI265
aI159
aI285
aI269
aI282
aI263
aI275
aI302
aI262
aI303
aI300
aI301
aI261
aI277
aI259
aI267
aI280
aI290
aI297
aI294
aI273
aI264
aI299
aI284
aI293
aI292
aI291
aI289
aI286
aI283
aI278
aI276
aI274
aI266
aI270
aI271
aI260
aI108
aI1037
aI577
aI545
aa(lp10
I108
aI1037
aI577
aI11
aI295
aI186
aI103
aI53
aI101
aI279
aI1733
aI1032
aI20
aI288
aI72
aI1243
aI31
aI365
aI363
aI207
aI450
aI1088
aI457
aI346
aI100
aI369
aI315
aI370
aI296
aI77
aI396
aI244
aI1091
aI545
aI465
aI265
aI45
aI230
aI27
aI1066
aI2009
aI375
aI159
aI543
aI984
aI746
aI398
aI285
aI2065
aI322
aa(lp11
I1037
aI207
aI11
aI53
aI20
aI577
aI147
aI186
aI108
aI288
aI1088
aI244
aI365
aI363
aI353
aI465
aI346
aI369
aI36
aI396
aI1515
aI545
aI1066
aI1032
aI230
aI214
aI359
aI2065
aI1091
aI457
aI146
aI72
aI102
aI119
aI315
aI44
aI45
aI746
aI543
aI504
aI698
aI27
aI375
aI279
aI101
aI41
aI3137
aI1079
aI333
aI15
aa(lp12
I288
aI1037
aI72
aI101
aI279
aI103
aI295
aI303
aI77
aI100
aI300
aI282
aI265
aI11
aI207
aI269
aI53
aI159
aI296
aI20
aI285
aI577
aI261
aI302
aI263
aI147
aI275
aI186
aI262
aI290
aI277
aI299
aI280
aI301
aI259
aI545
aI284
aI267
aI273
aI297
aI264
aI294
aI293
aI292
aI291
aI289
aI286
aI283
aI278
aI276
aa(lp13
I1037
aI11
aI207
aI53
aI20
aI577
aI147
aI186
aI108
aI288
aI1088
aI244
aI365
aI363
aI353
aI465
aI346
aI369
aI36
aI396
aI1515
aI545
aI1066
aI1032
aI230
aI214
aI359
aI2065
aI1091
aI457
aI72
aI102
aI146
aI119
aI315
aI44
aI45
aI543
aI746
aI279
aI698
aI504
aI27
aI101
aI375
aI41
aI1079
aI3137
aI333
aI322
aa.