(lp0
(lp1
I300
aI661
aI1683
aI683
aI684
aI1425
aI1749
aI3024
aI1459
aI509
aI155
aI2098
aI1759
aI227
aI568
aI246
aI1463
aI197
aI1339
aI515
aI165
aI514
aI1748
aI9
aI4051
aI615
aI1327
aI1758
aI613
aI808
aI518
aI2447
aI1431
aI3025
aI4056
aI2705
aI777
aI658
aI517
aI1828
aI564
aI2499
aI3136
aI2563
aI2952
aI782
aI2760
aI166
aI2622
aI660
aa(lp2
I197
aI3136
aI786
aI3571
aI1446
aI2427
aI2871
aI4045
aI2790
aI660
aI2699
aI2740
aI2705
aI4516
aI529
aI1206
aI814
aI3651
aI1436
aI2746
aI658
aI166
aI611
aI657
aI850
aI1638
aI4012
aI1631
aI3867
aI2882
aI3503
aI2686
aI2760
aI2983
aI1401
aI4763
aI1339
aI2872
aI1327
aI575
aI63
aI696
aI2447
aI241
aI2707
aI672
aI1099
aI3186
aI3627
aI22
aa(lp3
I300
aI661
aI684
aI1683
aI683
aI1425
aI1749
aI509
aI1459
aI3024
aI1759
aI2098
aI155
aI227
aI1463
aI246
aI568
aI165
aI515
aI615
aI9
aI613
aI518
aI1748
aI1758
aI808
aI777
aI4056
aI4051
aI1339
aI514
aI782
aI564
aI3025
aI2622
aI517
aI1828
aI2463
aI580
aI468
aI2563
aI2447
aI420
aI1762
aI1327
aI3807
aI350
aI2499
aI976
aI244
aa(lp4
I4522
aI4516
aI4515
aI4546
aI4524
aI4525
aI4542
aI4549
aI4555
aI4557
aI4556
aI4552
aI4523
aI4543
aI4545
aI4547
aI4513
aI4544
aI4532
aI4563
aI4510
aI495
aI4551
aI4518
aI496
aI4550
aI4519
aI4579
aI4558
aI4548
aI4561
aI4562
aI4511
aI4574
aI4568
aI4528
aI442
aI4582
aI4580
aI4583
aI4536
aI4509
aI4520
aI4575
aI4553
aI4539
aI4581
aI4566
aI4521
aI4527
aa(lp5
I197
aI3136
aI660
aI2871
aI2427
aI2705
aI658
aI2699
aI786
aI2746
aI2740
aI529
aI2760
aI1436
aI2790
aI166
aI1446
aI1631
aI1339
aI2686
aI3024
aI4045
aI2707
aI2952
aI611
aI1327
aI2898
aI2763
aI568
aI2659
aI514
aI1431
aI566
aI300
aI662
aI672
aI657
aI696
aI241
aI655
aI1683
aI2696
aI683
aI3164
aI3571
aI661
aI575
aI2667
aI1749
aI3186
aa(lp6
I4516
aI4522
aI4546
aI4524
aI4515
aI4525
aI4542
aI4555
aI4557
aI4549
aI4556
aI4523
aI4552
aI4543
aI4513
aI4532
aI4545
aI4547
aI4510
aI4563
aI4544
aI4551
aI495
aI4518
aI496
aI4519
aI3136
aI4568
aI197
aI4558
aI4550
aI4548
aI4579
aI4561
aI4528
aI4574
aI4562
aI786
aI3571
aI4536
aI4511
aI660
aI2871
aI2699
aI4045
aI2427
aI442
aI2746
aI2740
aI2790
aa(lp7
I197
aI3136
aI2871
aI660
aI2705
aI2699
aI658
aI786
aI2746
aI2427
aI2740
aI2760
aI1339
aI1436
aI2790
aI2707
aI1327
aI1631
aI2686
aI1431
aI2898
aI657
aI655
aI2952
aI1446
aI4045
aI166
aI3024
aI529
aI2659
aI2763
aI611
aI300
aI3571
aI672
aI662
aI4051
aI2667
aI2704
aI683
aI696
aI568
aI661
aI3164
aI241
aI2696
aI2882
aI2872
aI1683
aI1425
aa(lp8
I300
aI1683
aI661
aI684
aI683
aI1425
aI1749
aI3024
aI509
aI1759
aI1459
aI2098
aI155
aI227
aI1463
aI246
aI568
aI165
aI615
aI613
aI1748
aI518
aI9
aI515
aI1758
aI808
aI3025
aI777
aI514
aI4056
aI1762
aI517
aI1339
aI782
aI564
aI4051
aI2622
aI1828
aI580
aI2499
aI2463
aI244
aI168
aI1327
aI468
aI516
aI2447
aI2563
aI1431
aI64
aa(lp9
I4522
aI4516
aI4515
aI4546
aI4525
aI4542
aI4549
aI4524
aI4555
aI4557
aI4556
aI4552
aI4523
aI4543
aI4545
aI4547
aI4513
aI4544
aI4532
aI4563
aI4510
aI495
aI4518
aI4551
aI496
aI4550
aI4519
aI4579
aI4548
aI4558
aI4511
aI4561
aI4562
aI4528
aI4574
aI442
aI4568
aI4582
aI4580
aI4509
aI4536
aI4583
aI4520
aI4553
aI4539
aI4575
aI4527
aI4526
aI4581
aI4566
aa(lp10
I300
aI661
aI1683
aI684
aI683
aI1425
aI1749
aI3024
aI1459
aI1759
aI509
aI2098
aI155
aI227
aI1463
aI246
aI568
aI165
aI1748
aI615
aI515
aI9
aI613
aI1758
aI518
aI808
aI1339
aI3025
aI777
aI4056
aI4051
aI514
aI1762
aI782
aI517
aI1828
aI1327
aI564
aI2622
aI468
aI1431
aI580
aI2563
aI2463
aI2499
aI2447
aI168
aI420
aI244
aI64
aa(lp11
I197
aI786
aI3136
aI1446
aI2427
aI2871
aI658
aI2705
aI3571
aI660
aI2790
aI529
aI166
aI611
aI2740
aI1436
aI2760
aI514
aI1631
aI2699
aI2686
aI575
aI2746
aI2952
aI1339
aI662
aI4045
aI3024
aI1431
aI566
aI276
aI2659
aI1401
aI1327
aI2696
aI2660
aI63
aI3867
aI568
aI2707
aI2983
aI300
aI2447
aI803
aI2898
aI2658
aI1683
aI155
aI4051
aI3179
aa(lp12
I4516
aI4522
aI4546
aI4515
aI4524
aI4525
aI4542
aI4555
aI4557
aI4549
aI4556
aI4523
aI4552
aI4543
aI4513
aI4532
aI4545
aI4547
aI4510
aI4563
aI4544
aI4551
aI495
aI197
aI4518
aI496
aI786
aI3571
aI4519
aI3136
aI1446
aI4550
aI4568
aI4558
aI4548
aI4579
aI814
aI2427
aI2871
aI4561
aI2790
aI4528
aI4562
aI4574
aI4045
aI3651
aI4511
aI4536
aI2740
aI660
aa(lp13
I197
aI786
aI3136
aI2871
aI1446
aI2705
aI3571
aI2790
aI658
aI2427
aI660
aI1436
aI2740
aI166
aI2760
aI1339
aI2699
aI611
aI1631
aI529
aI2686
aI1327
aI1431
aI2707
aI2952
aI2746
aI4045
aI662
aI3024
aI2659
aI514
aI276
aI2898
aI4051
aI300
aI63
aI657
aI1401
aI2447
aI3867
aI2696
aI575
aI2660
aI803
aI655
aI3179
aI2882
aI155
aI2763
aI2704
aa(lp14
I300
aI661
aI1683
aI684
aI683
aI1749
aI1425
aI3024
aI509
aI1759
aI1459
aI2098
aI155
aI227
aI1463
aI246
aI568
aI165
aI1748
aI615
aI613
aI518
aI9
aI1758
aI515
aI808
aI3025
aI514
aI777
aI517
aI1762
aI4056
aI564
aI1339
aI782
aI4051
aI580
aI1828
aI2622
aI2463
aI2499
aI468
aI244
aI168
aI516
aI1327
aI2563
aI2447
aI1431
aI542
aa(lp15
I4522
aI4516
aI4515
aI4546
aI4525
aI4542
aI4549
aI4524
aI4555
aI4557
aI4556
aI4552
aI4523
aI4543
aI4545
aI4547
aI4513
aI4544
aI4532
aI4563
aI4510
aI495
aI4518
aI4551
aI496
aI4550
aI4519
aI4579
aI4548
aI4558
aI4511
aI4561
aI4562
aI4528
aI4574
aI442
aI4568
aI4582
aI4580
aI4509
aI4536
aI4583
aI4520
aI4553
aI4539
aI4575
aI4527
aI4526
aI4581
aI4566
aa(lp16
I300
aI661
aI684
aI1683
aI683
aI1425
aI1749
aI3024
aI1459
aI1759
aI509
aI2098
aI155
aI227
aI1463
aI246
aI165
aI568
aI1748
aI615
aI1758
aI515
aI9
aI613
aI518
aI808
aI1339
aI3025
aI4056
aI777
aI514
aI4051
aI1762
aI517
aI782
aI1828
aI564
aI1327
aI468
aI2622
aI1431
aI580
aI2563
aI2463
aI2447
aI2499
aI168
aI420
aI64
aI244
aa.