(lp0
(lp1
I5
aI5241
aI5240
aI5239
aI5238
aI5237
aI5236
aI5235
aI5234
aI5233
aI5232
aI5231
aI5230
aI5229
aI5228
aI5227
aI5226
aI5225
aI5224
aI5223
aI5222
aI5221
aI5220
aI5219
aI5218
aI5217
aI5216
aI5215
aI5214
aI5213
aI5212
aI5211
aI5210
aI5208
aI5207
aI5206
aI5205
aI5204
aI5203
aI5202
aI5201
aI5200
aI5199
aI5198
aI5197
aI5196
aI5195
aI5194
aI5193
aI5192
aa(lp2
I5
aI5111
aI5238
aI5237
aI5236
aI5235
aI5234
aI5233
aI5232
aI5231
aI5230
aI5229
aI5228
aI5227
aI5220
aI5219
aI5218
aI5217
aI5216
aI5215
aI5214
aI5213
aI5208
aI5207
aI5206
aI5205
aI5204
aI5203
aI5201
aI5200
aI5196
aI5195
aI5193
aI5192
aI5190
aI5189
aI5182
aI5181
aI5180
aI5179
aI5178
aI5177
aI5173
aI5172
aI5167
aI5166
aI5150
aI5149
aI5140
aI5139
aa(lp3
I5111
aI5238
aI5237
aI5236
aI5235
aI5234
aI5233
aI5232
aI5231
aI5230
aI5229
aI5228
aI5227
aI5220
aI5219
aI5218
aI5217
aI5216
aI5215
aI5214
aI5213
aI5208
aI5207
aI5206
aI5205
aI5204
aI5203
aI5201
aI5200
aI5196
aI5195
aI5193
aI5192
aI5190
aI5189
aI5182
aI5181
aI5180
aI5179
aI5178
aI5177
aI5173
aI5172
aI5167
aI5166
aI5150
aI5149
aI5140
aI5139
aI5134
aa(lp4
I5111
aI5238
aI5237
aI5236
aI5235
aI5234
aI5233
aI5232
aI5231
aI5230
aI5229
aI5228
aI5227
aI5220
aI5219
aI5218
aI5217
aI5216
aI5215
aI5214
aI5213
aI5208
aI5207
aI5206
aI5205
aI5204
aI5203
aI5201
aI5200
aI5196
aI5195
aI5193
aI5192
aI5190
aI5189
aI5182
aI5181
aI5180
aI5179
aI5178
aI5177
aI5173
aI5172
aI5167
aI5166
aI5150
aI5149
aI5140
aI5139
aI5134
aa(lp5
I5
aI5111
aI5238
aI5237
aI5236
aI5235
aI5234
aI5233
aI5232
aI5231
aI5230
aI5229
aI5228
aI5227
aI5220
aI5219
aI5218
aI5217
aI5216
aI5215
aI5214
aI5213
aI5208
aI5207
aI5206
aI5205
aI5204
aI5203
aI5201
aI5200
aI5196
aI5195
aI5193
aI5192
aI5190
aI5189
aI5182
aI5181
aI5180
aI5179
aI5178
aI5177
aI5173
aI5172
aI5167
aI5166
aI5150
aI5149
aI5140
aI5139
aa(lp6
I5
aI5241
aI5240
aI5239
aI5238
aI5237
aI5236
aI5235
aI5234
aI5233
aI5232
aI5231
aI5230
aI5229
aI5228
aI5227
aI5226
aI5225
aI5224
aI5223
aI5222
aI5221
aI5220
aI5219
aI5218
aI5217
aI5216
aI5215
aI5214
aI5213
aI5212
aI5211
aI5210
aI5208
aI5207
aI5206
aI5205
aI5204
aI5203
aI5201
aI5200
aI5199
aI5198
aI5197
aI5196
aI5195
aI5193
aI5192
aI5190
aI5189
aa(lp7
I5111
aI5238
aI5237
aI5236
aI5235
aI5234
aI5233
aI5232
aI5231
aI5230
aI5229
aI5228
aI5227
aI5220
aI5219
aI5218
aI5217
aI5216
aI5215
aI5214
aI5213
aI5208
aI5207
aI5206
aI5205
aI5204
aI5203
aI5201
aI5200
aI5196
aI5195
aI5193
aI5192
aI5190
aI5189
aI5182
aI5181
aI5180
aI5179
aI5178
aI5177
aI5173
aI5172
aI5167
aI5166
aI5150
aI5149
aI5140
aI5139
aI5134
aa(lp8
I5
aI5111
aI5238
aI5237
aI5236
aI5235
aI5234
aI5233
aI5232
aI5231
aI5230
aI5229
aI5228
aI5227
aI5220
aI5219
aI5218
aI5217
aI5216
aI5215
aI5214
aI5213
aI5208
aI5207
aI5206
aI5205
aI5204
aI5203
aI5201
aI5200
aI5196
aI5195
aI5193
aI5192
aI5190
aI5189
aI5182
aI5181
aI5180
aI5179
aI5178
aI5177
aI5173
aI5172
aI5167
aI5166
aI5150
aI5149
aI5140
aI5139
aa(lp9
I5
aI4794
aI4224
aI3602
aI4795
aI3408
aI3927
aI3568
aI3567
aI3486
aI696
aI695
aI2122
aI2327
aI3195
aI787
aI2308
aI1641
aI1640
aI3843
aI416
aI1466
aI367
aI1316
aI2927
aI2328
aI3063
aI3062
aI3094
aI4331
aI4330
aI3491
aI1239
aI1853
aI478
aI460
aI2413
aI2412
aI2411
aI3913
aI3098
aI1646
aI4496
aI703
aI4006
aI3220
aI4391
aI1014
aI3512
aI4455
aa(lp10
I5111
aI5238
aI5237
aI5236
aI5235
aI5234
aI5233
aI5232
aI5231
aI5230
aI5229
aI5228
aI5227
aI5220
aI5219
aI5218
aI5217
aI5216
aI5215
aI5214
aI5213
aI5208
aI5207
aI5206
aI5205
aI5204
aI5203
aI5201
aI5200
aI5196
aI5195
aI5193
aI5192
aI5190
aI5189
aI5182
aI5181
aI5180
aI5179
aI5178
aI5177
aI5173
aI5172
aI5167
aI5166
aI5150
aI5149
aI5140
aI5139
aI5134
aa(lp11
I5
aI5111
aI5238
aI5237
aI5236
aI5235
aI5234
aI5233
aI5232
aI5231
aI5230
aI5229
aI5228
aI5227
aI5220
aI5219
aI5218
aI5217
aI5216
aI5215
aI5214
aI5213
aI5208
aI5207
aI5206
aI5205
aI5204
aI5203
aI5201
aI5200
aI5196
aI5195
aI5193
aI5192
aI5190
aI5189
aI5182
aI5181
aI5180
aI5179
aI5178
aI5177
aI5173
aI5172
aI5167
aI5166
aI5150
aI5149
aI5140
aI5139
aa(lp12
I5
aI5241
aI5240
aI5239
aI5238
aI5237
aI5236
aI5235
aI5234
aI5233
aI5232
aI5231
aI5230
aI5229
aI5228
aI5227
aI5226
aI5225
aI5224
aI5223
aI5222
aI5221
aI5220
aI5219
aI5218
aI5217
aI5216
aI5215
aI5214
aI5213
aI5212
aI5211
aI5210
aI5208
aI5207
aI5206
aI5205
aI5204
aI5203
aI5201
aI5200
aI5199
aI5198
aI5197
aI5196
aI5195
aI5193
aI5192
aI5190
aI5189
aa(lp13
I5111
aI5238
aI5237
aI5236
aI5235
aI5234
aI5233
aI5232
aI5231
aI5230
aI5229
aI5228
aI5227
aI5220
aI5219
aI5218
aI5217
aI5216
aI5215
aI5214
aI5213
aI5208
aI5207
aI5206
aI5205
aI5204
aI5203
aI5201
aI5200
aI5196
aI5195
aI5193
aI5192
aI5190
aI5189
aI5182
aI5181
aI5180
aI5179
aI5178
aI5177
aI5173
aI5172
aI5167
aI5166
aI5150
aI5149
aI5140
aI5139
aI5134
aa.