(lp0
(lp1
I101
aI295
aI279
aI103
aI77
aI72
aI296
aI288
aI265
aI100
aI159
aI285
aI1284
aI282
aI302
aI275
aI263
aI262
aI269
aI300
aI303
aI301
aI277
aI267
aI259
aI221
aI297
aI280
aI261
aI299
aI294
aI290
aI264
aI284
aI273
aI1037
aI577
aI293
aI292
aI291
aI289
aI286
aI283
aI278
aI276
aI274
aI270
aI266
aI545
aI1278
aa(lp2
I1037
aI11
aI207
aI53
aI577
aI20
aI147
aI186
aI108
aI288
aI365
aI244
aI1088
aI353
aI363
aI465
aI346
aI369
aI36
aI396
aI545
aI1066
aI1515
aI1032
aI230
aI359
aI457
aI2065
aI214
aI72
aI1091
aI102
aI543
aI146
aI3137
aI101
aI119
aI315
aI44
aI746
aI375
aI279
aI45
aI698
aI27
aI504
aI1079
aI41
aI322
aI333
aa(lp3
I108
aI1037
aI577
aI11
aI186
aI295
aI53
aI103
aI1733
aI101
aI279
aI1243
aI1032
aI450
aI31
aI20
aI365
aI457
aI363
aI1088
aI72
aI207
aI288
aI346
aI370
aI315
aI369
aI100
aI396
aI296
aI2009
aI1091
aI465
aI45
aI77
aI545
aI244
aI375
aI2138
aI27
aI265
aI984
aI543
aI757
aI418
aI398
aI1066
aI230
aI746
aI2029
aa(lp4
I1037
aI147
aI11
aI288
aI244
aI101
aI1515
aI359
aI279
aI103
aI322
aI265
aI53
aI230
aI20
aI545
aI300
aI72
aI353
aI577
aI73
aI241
aI36
aI365
aI363
aI369
aI282
aI346
aI256
aI295
aI214
aI253
aI1032
aI303
aI159
aI77
aI2182
aI100
aI207
aI302
aI44
aI263
aI285
aI146
aI296
aI1066
aI41
aI186
aI258
aI262
aa(lp5
I101
aI265
aI279
aI296
aI77
aI159
aI302
aI275
aI285
aI282
aI262
aI288
aI295
aI100
aI103
aI72
aI301
aI267
aI263
aI269
aI297
aI300
aI277
aI280
aI264
aI303
aI294
aI299
aI261
aI284
aI290
aI273
aI293
aI292
aI291
aI289
aI286
aI283
aI278
aI276
aI274
aI266
aI259
aI270
aI271
aI260
aI545
aI615
aI622
aI614
aa(lp6
I1037
aI288
aI101
aI279
aI11
aI103
aI244
aI147
aI265
aI72
aI300
aI295
aI359
aI322
aI545
aI1515
aI77
aI53
aI100
aI577
aI282
aI159
aI230
aI20
aI296
aI302
aI285
aI263
aI73
aI303
aI241
aI353
aI262
aI275
aI256
aI36
aI277
aI259
aI346
aI299
aI365
aI363
aI301
aI269
aI253
aI280
aI1032
aI207
aI261
aI369
aa(lp7
I1037
aI207
aI11
aI53
aI20
aI577
aI147
aI186
aI108
aI1088
aI288
aI365
aI244
aI363
aI465
aI353
aI346
aI369
aI396
aI36
aI1515
aI545
aI1066
aI1032
aI230
aI457
aI214
aI2065
aI1091
aI359
aI102
aI146
aI72
aI3137
aI119
aI315
aI746
aI543
aI45
aI27
aI375
aI44
aI698
aI504
aI279
aI41
aI1079
aI333
aI101
aI15
aa(lp8
I5111
aI5238
aI5237
aI5236
aI5235
aI5234
aI5233
aI5232
aI5231
aI5230
aI5229
aI5228
aI5227
aI5220
aI5219
aI5218
aI5217
aI5216
aI5215
aI5214
aI5213
aI5208
aI5207
aI5206
aI5205
aI5204
aI5203
aI5201
aI5200
aI5196
aI5195
aI5193
aI5192
aI5190
aI5189
aI5182
aI5181
aI5180
aI5179
aI5178
aI5177
aI5173
aI5172
aI5167
aI5166
aI5150
aI5149
aI5140
aI5139
aI5134
aa(lp9
I5
aI5241
aI5240
aI5239
aI5238
aI5237
aI5236
aI5235
aI5234
aI5233
aI5232
aI5231
aI5230
aI5229
aI5228
aI5227
aI5226
aI5225
aI5224
aI5223
aI5222
aI5221
aI5220
aI5219
aI5218
aI5217
aI5216
aI5215
aI5214
aI5213
aI5212
aI5211
aI5210
aI5208
aI5207
aI5206
aI5205
aI5204
aI5203
aI5202
aI5201
aI5200
aI5199
aI5198
aI5197
aI5196
aI5195
aI5194
aI5193
aI5192
aa(lp10
I5
aI5111
aI5238
aI5237
aI5236
aI5235
aI5234
aI5233
aI5232
aI5231
aI5230
aI5229
aI5228
aI5227
aI5220
aI5219
aI5218
aI5217
aI5216
aI5215
aI5214
aI5213
aI5208
aI5207
aI5206
aI5205
aI5204
aI5203
aI5201
aI5200
aI5196
aI5195
aI5193
aI5192
aI5190
aI5189
aI5182
aI5181
aI5180
aI5179
aI5178
aI5177
aI5173
aI5172
aI5167
aI5166
aI5150
aI5149
aI5140
aI5139
aa(lp11
I5
aI4794
aI4224
aI3602
aI4795
aI3408
aI3927
aI3568
aI3567
aI3486
aI696
aI695
aI2122
aI2327
aI3195
aI787
aI2308
aI1641
aI1640
aI3843
aI416
aI1466
aI367
aI1316
aI2927
aI2328
aI3063
aI3062
aI3094
aI4331
aI4330
aI3491
aI1239
aI1853
aI478
aI460
aI2413
aI2412
aI2411
aI3913
aI3098
aI1646
aI4496
aI703
aI4006
aI3220
aI4391
aI1014
aI3512
aI4455
aa(lp12
I5111
aI5238
aI5237
aI5236
aI5235
aI5234
aI5233
aI5232
aI5231
aI5230
aI5229
aI5228
aI5227
aI5220
aI5219
aI5218
aI5217
aI5216
aI5215
aI5214
aI5213
aI5208
aI5207
aI5206
aI5205
aI5204
aI5203
aI5201
aI5200
aI5196
aI5195
aI5193
aI5192
aI5190
aI5189
aI5182
aI5181
aI5180
aI5179
aI5178
aI5177
aI5173
aI5172
aI5167
aI5166
aI5150
aI5149
aI5140
aI5139
aI5134
aa(lp13
I5
aI5111
aI5238
aI5237
aI5236
aI5235
aI5234
aI5233
aI5232
aI5231
aI5230
aI5229
aI5228
aI5227
aI5220
aI5219
aI5218
aI5217
aI5216
aI5215
aI5214
aI5213
aI5208
aI5207
aI5206
aI5205
aI5204
aI5203
aI5201
aI5200
aI5196
aI5195
aI5193
aI5192
aI5190
aI5189
aI5182
aI5181
aI5180
aI5179
aI5178
aI5177
aI5173
aI5172
aI5167
aI5166
aI5150
aI5149
aI5140
aI5139
aa(lp14
I5
aI5111
aI5238
aI5237
aI5236
aI5235
aI5234
aI5233
aI5232
aI5231
aI5230
aI5229
aI5228
aI5227
aI5220
aI5219
aI5218
aI5217
aI5216
aI5215
aI5214
aI5213
aI5208
aI5207
aI5206
aI5205
aI5204
aI5203
aI5201
aI5200
aI5196
aI5195
aI5193
aI5192
aI5190
aI5189
aI5182
aI5181
aI5180
aI5179
aI5178
aI5177
aI5173
aI5172
aI5167
aI5166
aI5150
aI5149
aI5140
aI5139
aa(lp15
I5111
aI5238
aI5237
aI5236
aI5235
aI5234
aI5233
aI5232
aI5231
aI5230
aI5229
aI5228
aI5227
aI5220
aI5219
aI5218
aI5217
aI5216
aI5215
aI5214
aI5213
aI5208
aI5207
aI5206
aI5205
aI5204
aI5203
aI5201
aI5200
aI5196
aI5195
aI5193
aI5192
aI5190
aI5189
aI5182
aI5181
aI5180
aI5179
aI5178
aI5177
aI5173
aI5172
aI5167
aI5166
aI5150
aI5149
aI5140
aI5139
aI5134
aa.