(lp0
(lp1
I2055
aI2038
aI2040
aI835
aI101
aI931
aI66
aI2151
aI1936
aI572
aI607
aI790
aI147
aI604
aI2088
aI714
aI1955
aI577
aI2106
aI2093
aI620
aI2085
aI836
aI925
aI617
aI687
aI410
aI1322
aI741
aI494
aI1053
aI214
aI321
aI1229
aI2086
aI268
aI347
aI123
aI208
aI1744
aI170
aI794
aI42
aI320
aI580
aI1449
aI618
aI806
aI237
aI876
aa(lp2
I2055
aI2038
aI2040
aI835
aI101
aI931
aI66
aI2151
aI1936
aI572
aI607
aI790
aI147
aI2088
aI604
aI714
aI1955
aI577
aI2106
aI2093
aI2085
aI620
aI836
aI925
aI617
aI687
aI410
aI494
aI1322
aI214
aI321
aI741
aI1053
aI1229
aI268
aI123
aI208
aI2086
aI1744
aI347
aI170
aI42
aI794
aI320
aI580
aI806
aI618
aI1449
aI876
aI237
aa.