(lp0
(lp1
I2055
aI835
aI2038
aI790
aI604
aI2093
aI2040
aI131
aI2151
aI1936
aI836
aI577
aI347
aI1955
aI707
aI67
aI66
aI2282
aI2201
aI925
aI494
aI410
aI124
aI687
aI607
aI123
aI2091
aI2088
aI1229
aI690
aI673
aI644
aI258
aI208
aI196
aI1903
aI1449
aI1092
aI931
aI792
aI714
aI572
aI395
aI303
aI257
aI217
aI205
aI166
aI2235
aI2208
aa(lp2
I101
aI572
aI714
aI794
aI1043
aI1911
aI1744
aI741
aI607
aI1903
aI155
aI1830
aI123
aI132
aI1321
aI1936
aI686
aI1174
aI98
aI1137
aI66
aI268
aI214
aI196
aI791
aI995
aI148
aI2183
aI2394
aI802
aI1325
aI395
aI1957
aI329
aI963
aI2300
aI1204
aI1982
aI1229
aI258
aI1135
aI115
aI1227
aI1322
aI1837
aI2089
aI986
aI337
aI1604
aI1154
aa(lp3
I835
aI931
aI2055
aI2038
aI2040
aI790
aI577
aI66
aI321
aI147
aI82
aI2151
aI2093
aI617
aI320
aI494
aI925
aI580
aI604
aI1936
aI1022
aI67
aI876
aI165
aI410
aI2106
aI2088
aI237
aI770
aI495
aI170
aI69
aI2091
aI836
aI1138
aI703
aI1449
aI2094
aI42
aI2086
aI687
aI618
aI806
aI1034
aI620
aI322
aI2085
aI2222
aI2077
aI208
aa(lp4
I835
aI147
aI604
aI931
aI621
aI607
aI101
aI790
aI66
aI687
aI217
aI925
aI620
aI170
aI1449
aI577
aI1053
aI618
aI1034
aI494
aI240
aI743
aI347
aI574
aI596
aI410
aI1229
aI42
aI836
aI69
aI1204
aI67
aI1454
aI257
aI495
aI741
aI575
aI166
aI606
aI792
aI930
aI617
aI644
aI432
aI593
aI70
aI605
aI1320
aI243
aI843
aa(lp5
I2055
aI2040
aI2038
aI2151
aI2106
aI2088
aI2085
aI2235
aI2234
aI2150
aI2105
aI2084
aI2104
aI1955
aI2259
aI1936
aI2270
aI2091
aI1038
aI2107
aI2148
aI2089
aI2324
aI2093
aI2269
aI2448
aI2147
aI2256
aI1954
aI1037
aI2110
aI2039
aI2128
aI2435
aI1985
aI2094
aI2201
aI2012
aI931
aI2274
aI2126
aI2169
aI2125
aI2371
aI2095
aI835
aI2271
aI1061
aI2374
aI2282
aa(lp6
I835
aI604
aI147
aI931
aI790
aI607
aI621
aI66
aI101
aI687
aI217
aI925
aI577
aI620
aI170
aI1449
aI1053
aI494
aI347
aI410
aI1034
aI836
aI596
aI618
aI67
aI257
aI1229
aI743
aI240
aI1454
aI69
aI1204
aI42
aI495
aI741
aI574
aI166
aI575
aI606
aI1936
aI2093
aI580
aI644
aI792
aI70
aI930
aI876
aI432
aI617
aI339
aa(lp7
I572
aI101
aI714
aI1043
aI794
aI1911
aI1744
aI1903
aI741
aI1830
aI155
aI123
aI607
aI132
aI1321
aI1174
aI686
aI1137
aI1936
aI268
aI98
aI214
aI791
aI66
aI995
aI196
aI2183
aI148
aI802
aI1325
aI329
aI963
aI2394
aI395
aI1982
aI1135
aI258
aI1957
aI2300
aI115
aI1204
aI1227
aI1229
aI1837
aI337
aI1604
aI986
aI1154
aI1322
aI2089
aa(lp8
I2537
aI2532
aI2530
aI2392
aI2272
aI2255
aI1970
aI1921
aI1894
aI1870
aI1590
aI1557
aI1383
aI1029
aI863
aI853
aI562
aI2413
aI1978
aI1933
aI1926
aI1912
aI1878
aI1863
aI1858
aI1703
aI1682
aI1625
aI1559
aI1450
aI1416
aI1402
aI2536
aI2533
aI2527
aI2487
aI2481
aI2480
aI2383
aI1996
aI1940
aI1919
aI1842
aI1766
aI1751
aI1351
aI2531
aI2519
aI2516
aI2474
aa(lp9
I5
aI2538
aI2537
aI2536
aI2534
aI2533
aI2532
aI2531
aI2530
aI2529
aI2527
aI2526
aI2525
aI2524
aI2519
aI2516
aI2515
aI2511
aI2504
aI2498
aI2496
aI2494
aI2492
aI2487
aI2481
aI2480
aI2476
aI2475
aI2474
aI2472
aI2471
aI2460
aI2450
aI2446
aI2442
aI2432
aI2430
aI2424
aI2421
aI2413
aI2405
aI2392
aI2385
aI2383
aI2356
aI2350
aI2342
aI2334
aI2333
aI2318
aa(lp10
I2538
aI2537
aI2536
aI2534
aI2533
aI2532
aI2531
aI2530
aI2527
aI2524
aI2519
aI2516
aI2511
aI2504
aI2492
aI2487
aI2481
aI2480
aI2474
aI2446
aI2432
aI2413
aI2392
aI2383
aI2350
aI2272
aI2255
aI2118
aI2021
aI1996
aI1978
aI1975
aI1974
aI1970
aI1968
aI1956
aI1946
aI1940
aI1937
aI1933
aI1932
aI1926
aI1921
aI1920
aI1919
aI1912
aI1904
aI1894
aI1892
aI1878
aa(lp11
I5
aI2538
aI2537
aI2536
aI2534
aI2533
aI2532
aI2531
aI2530
aI2527
aI2524
aI2519
aI2516
aI2511
aI2504
aI2492
aI2487
aI2481
aI2480
aI2474
aI2446
aI2432
aI2413
aI2392
aI2383
aI2350
aI2272
aI2255
aI2118
aI2021
aI1996
aI1978
aI1975
aI1974
aI1970
aI1968
aI1956
aI1946
aI1940
aI1937
aI1933
aI1932
aI1926
aI1921
aI1920
aI1919
aI1912
aI1904
aI1894
aI1892
aa(lp12
I5
aI2538
aI2537
aI2536
aI2534
aI2533
aI2532
aI2531
aI2530
aI2527
aI2524
aI2519
aI2516
aI2511
aI2504
aI2492
aI2487
aI2481
aI2480
aI2474
aI2446
aI2432
aI2413
aI2392
aI2383
aI2350
aI2272
aI2255
aI2118
aI2021
aI1996
aI1978
aI1975
aI1974
aI1970
aI1968
aI1956
aI1946
aI1940
aI1937
aI1933
aI1932
aI1926
aI1921
aI1920
aI1919
aI1912
aI1904
aI1894
aI1892
aa(lp13
I5
aI2538
aI2537
aI2536
aI2534
aI2533
aI2532
aI2531
aI2530
aI2527
aI2524
aI2519
aI2516
aI2511
aI2504
aI2492
aI2487
aI2481
aI2480
aI2474
aI2446
aI2432
aI2413
aI2392
aI2383
aI2350
aI2272
aI2255
aI2118
aI2021
aI1996
aI1978
aI1975
aI1974
aI1970
aI1968
aI1956
aI1948
aI1947
aI1946
aI1940
aI1937
aI1933
aI1932
aI1926
aI1921
aI1920
aI1919
aI1912
aI1905
aa(lp14
I2538
aI2537
aI2536
aI2534
aI2533
aI2532
aI2531
aI2530
aI2527
aI2524
aI2519
aI2516
aI2511
aI2504
aI2492
aI2487
aI2481
aI2480
aI2474
aI2446
aI2432
aI2413
aI2392
aI2383
aI2350
aI2272
aI2255
aI2118
aI2021
aI1996
aI1978
aI1975
aI1974
aI1970
aI1968
aI1956
aI1946
aI1940
aI1937
aI1933
aI1932
aI1926
aI1921
aI1920
aI1919
aI1912
aI1904
aI1894
aI1892
aI1878
aa(lp15
I5
aI2538
aI2537
aI2536
aI2534
aI2533
aI2532
aI2531
aI2530
aI2527
aI2524
aI2519
aI2516
aI2511
aI2504
aI2492
aI2487
aI2481
aI2480
aI2474
aI2446
aI2432
aI2413
aI2392
aI2383
aI2350
aI2272
aI2255
aI2118
aI2021
aI1996
aI1978
aI1975
aI1974
aI1970
aI1968
aI1956
aI1946
aI1940
aI1937
aI1933
aI1932
aI1926
aI1921
aI1920
aI1919
aI1912
aI1904
aI1894
aI1892
aa(lp16
I5
aI2538
aI2537
aI2536
aI2534
aI2533
aI2532
aI2531
aI2530
aI2527
aI2524
aI2519
aI2516
aI2511
aI2504
aI2492
aI2487
aI2481
aI2480
aI2474
aI2446
aI2432
aI2413
aI2392
aI2383
aI2350
aI2272
aI2255
aI2118
aI2021
aI1996
aI1978
aI1975
aI1974
aI1970
aI1968
aI1956
aI1946
aI1940
aI1937
aI1933
aI1932
aI1926
aI1921
aI1920
aI1919
aI1912
aI1904
aI1894
aI1892
aa(lp17
I5
aI2538
aI2537
aI2536
aI2534
aI2533
aI2532
aI2531
aI2530
aI2527
aI2524
aI2519
aI2516
aI2511
aI2504
aI2492
aI2487
aI2481
aI2480
aI2474
aI2446
aI2432
aI2413
aI2392
aI2383
aI2350
aI2272
aI2255
aI2118
aI2021
aI1996
aI1978
aI1975
aI1974
aI1970
aI1968
aI1956
aI1948
aI1947
aI1946
aI1940
aI1937
aI1933
aI1932
aI1926
aI1921
aI1920
aI1919
aI1912
aI1905
aa(lp18
I2538
aI2537
aI2536
aI2534
aI2533
aI2532
aI2531
aI2530
aI2527
aI2524
aI2519
aI2516
aI2511
aI2504
aI2492
aI2487
aI2481
aI2480
aI2474
aI2446
aI2432
aI2413
aI2392
aI2383
aI2350
aI2272
aI2255
aI2118
aI2021
aI1996
aI1978
aI1975
aI1974
aI1970
aI1968
aI1956
aI1946
aI1940
aI1937
aI1933
aI1932
aI1926
aI1921
aI1920
aI1919
aI1912
aI1904
aI1894
aI1892
aI1878
aa.