(lp0
(lp1
I69
aI183
aI168
aI143
aI40
aI119
aI112
aI26
aI72
aI70
aI16
aI1
aI165
aI155
aI138
aI64
aI2
aI127
aI184
aI84
aI125
aI120
aI150
aI53
aI194
aI144
aI51
aI149
aI114
aI60
aI35
aI175
aI171
aI164
aI130
aI137
aI91
aI68
aI49
aI46
aI45
aI178
aI167
aI162
aI140
aI124
aI107
aI97
aI86
aI23
aa(lp2
I69
aI183
aI168
aI16
aI112
aI35
aI70
aI26
aI119
aI2
aI51
aI97
aI127
aI1
aI72
aI120
aI68
aI40
aI125
aI53
aI114
aI45
aI157
aI84
aI64
aI79
aI136
aI23
aI132
aI146
aI107
aI49
aI44
aI73
aI13
aI9
aI27
aI149
aI143
aI170
aI200
aI56
aI86
aI12
aI195
aI82
aI164
aI140
aI18
aI47
aa(lp3
I155
aI143
aI70
aI183
aI184
aI84
aI114
aI40
aI150
aI68
aI46
aI49
aI192
aI53
aI138
aI72
aI125
aI149
aI124
aI16
aI91
aI165
aI69
aI1
aI164
aI168
aI99
aI45
aI194
aI137
aI169
aI167
aI171
aI120
aI193
aI27
aI93
aI144
aI177
aI61
aI175
aI50
aI44
aI7
aI2
aI162
aI97
aI47
aI65
aI51
aa(lp4
I53
aI155
aI69
aI168
aI114
aI72
aI125
aI124
aI46
aI143
aI97
aI40
aI70
aI84
aI68
aI51
aI165
aI50
aI184
aI49
aI183
aI120
aI137
aI171
aI23
aI164
aI149
aI61
aI45
aI52
aI192
aI91
aI44
aI47
aI13
aI177
aI160
aI132
aI146
aI82
aI169
aI148
aI140
aI138
aI62
aI162
aI166
aI144
aI126
aI161
aa(lp5
I155
aI143
aI183
aI184
aI40
aI125
aI138
aI149
aI144
aI168
aI70
aI165
aI180
aI69
aI194
aI164
aI124
aI84
aI72
aI61
aI192
aI177
aI171
aI208
aI114
aI150
aI53
aI46
aI120
aI64
aI179
aI213
aI175
aI80
aI137
aI169
aI60
aI91
aI160
aI181
aI51
aI140
aI151
aI166
aI167
aI93
aI82
aI62
aI162
aI77
aa(lp6
I155
aI53
aI69
aI168
aI143
aI72
aI114
aI40
aI125
aI124
aI46
aI70
aI183
aI97
aI84
aI184
aI68
aI120
aI51
aI49
aI137
aI165
aI50
aI171
aI149
aI164
aI61
aI23
aI138
aI150
aI44
aI1
aI45
aI192
aI91
aI13
aI52
aI169
aI16
aI2
aI47
aI144
aI177
aI160
aI62
aI162
aI140
aI82
aI132
aI126
aa(lp7
I69
aI183
aI112
aI168
aI16
aI35
aI70
aI119
aI26
aI2
aI51
aI97
aI127
aI120
aI1
aI72
aI68
aI125
aI40
aI53
aI114
aI157
aI45
aI79
aI84
aI136
aI64
aI146
aI23
aI107
aI132
aI73
aI13
aI44
aI49
aI9
aI27
aI170
aI200
aI149
aI86
aI56
aI18
aI195
aI82
aI12
aI143
aI47
aI24
aI140
aa(lp8
I155
aI53
aI69
aI168
aI143
aI72
aI114
aI40
aI125
aI124
aI46
aI70
aI183
aI97
aI184
aI84
aI68
aI120
aI51
aI49
aI137
aI165
aI50
aI149
aI171
aI164
aI61
aI23
aI138
aI150
aI44
aI1
aI45
aI192
aI91
aI13
aI52
aI169
aI16
aI2
aI47
aI144
aI160
aI177
aI62
aI162
aI140
aI82
aI132
aI126
aa(lp9
I5
aI196
aI190
aI188
aI158
aI197
aI199
aI100
aI151
aI216
aI113
aI179
aI209
aI98
aI214
aI102
aI117
aI118
aI90
aI182
aI109
aI103
aI213
aI181
aI29
aI176
aI41
aI131
aI189
aI141
aI33
aI180
aI208
aI36
aI142
aI154
aI174
aI159
aI152
aI59
aI215
aI74
aI57
aI108
aI135
aI88
aI198
aI8
aI85
aI210
aa(lp10
I155
aI53
aI69
aI168
aI143
aI72
aI114
aI40
aI125
aI124
aI46
aI70
aI97
aI183
aI84
aI184
aI68
aI120
aI51
aI49
aI137
aI165
aI50
aI171
aI149
aI164
aI61
aI23
aI138
aI150
aI44
aI1
aI45
aI192
aI91
aI13
aI52
aI169
aI16
aI2
aI47
aI144
aI177
aI160
aI62
aI162
aI140
aI82
aI132
aI126
aa(lp11
I5
aI196
aI190
aI199
aI216
aI98
aI90
aI158
aI188
aI118
aI197
aI29
aI103
aI131
aI117
aI214
aI113
aI36
aI154
aI102
aI210
aI191
aI182
aI135
aI151
aI198
aI176
aI209
aI181
aI89
aI100
aI215
aI212
aI59
aI152
aI105
aI109
aI179
aI213
aI108
aI186
aI33
aI123
aI74
aI85
aI83
aI42
aI10
aI41
aI122
aa(lp12
I53
aI155
aI69
aI168
aI114
aI72
aI125
aI124
aI46
aI143
aI97
aI40
aI70
aI84
aI68
aI51
aI165
aI50
aI184
aI49
aI183
aI120
aI137
aI171
aI23
aI149
aI164
aI45
aI61
aI52
aI44
aI91
aI192
aI13
aI47
aI132
aI160
aI177
aI146
aI82
aI140
aI148
aI169
aI138
aI62
aI162
aI144
aI126
aI166
aI161
aa(lp13
I5
aI196
aI190
aI210
aI199
aI36
aI216
aI198
aI135
aI90
aI29
aI131
aI202
aI38
aI191
aI197
aI98
aI96
aI89
aI154
aI24
aI158
aI121
aI123
aI103
aI28
aI170
aI188
aI105
aI34
aI41
aI108
aI33
aI30
aI32
aI8
aI129
aI100
aI102
aI122
aI116
aI207
aI101
aI104
aI42
aI4
aI117
aI212
aI200
aI11
aa(lp14
I155
aI53
aI69
aI168
aI143
aI72
aI114
aI40
aI125
aI124
aI46
aI70
aI183
aI97
aI84
aI184
aI68
aI120
aI51
aI49
aI137
aI165
aI50
aI149
aI171
aI164
aI61
aI23
aI138
aI150
aI44
aI1
aI45
aI192
aI91
aI13
aI52
aI169
aI16
aI2
aI47
aI144
aI62
aI160
aI177
aI162
aI140
aI82
aI132
aI126
aa.