(lp0
(lp1
I126
aI14
aI120
aI73
aI39
aI127
aI11
aI219
aI208
aI22
aI209
aI207
aI193
aI15
aI12
aI10
aI9
aI8
aI167
aI62
aI215
aI212
aI197
aI68
aI28
aI220
aI218
aI210
aI196
aI131
aI128
aI74
aI53
aI40
aI35
aI4
aI230
aI225
aI216
aI170
aI169
aI86
aI83
aI77
aI54
aI44
aI34
aI30
aI24
aI18
aa(lp2
I73
aI39
aI28
aI34
aI14
aI11
aI62
aI97
aI74
aI72
aI30
aI40
aI22
aI91
aI24
aI8
aI77
aI35
aI99
aI19
aI88
aI68
aI4
aI93
aI54
aI23
aI83
aI9
aI27
aI45
aI86
aI44
aI18
aI126
aI2
aI52
aI13
aI59
aI17
aI71
aI100
aI47
aI16
aI15
aI53
aI197
aI31
aI37
aI90
aI25
aa(lp3
I14
aI73
aI126
aI11
aI39
aI13
aI120
aI22
aI17
aI15
aI207
aI8
aI62
aI208
aI74
aI18
aI12
aI219
aI209
aI10
aI9
aI16
aI220
aI127
aI128
aI131
aI99
aI53
aI215
aI193
aI218
aI34
aI41
aI50
aI125
aI132
aI83
aI212
aI216
aI224
aI93
aI225
aI167
aI27
aI186
aI72
aI88
aI86
aI40
aI129
aa(lp4
I14
aI11
aI73
aI39
aI15
aI22
aI12
aI10
aI62
aI9
aI17
aI74
aI53
aI8
aI41
aI13
aI50
aI34
aI18
aI99
aI68
aI27
aI83
aI110
aI16
aI72
aI30
aI96
aI88
aI28
aI93
aI86
aI40
aI101
aI90
aI97
aI35
aI100
aI45
aI91
aI3
aI2
aI54
aI56
aI77
aI44
aI51
aI48
aI31
aI98
aa(lp5
I207
aI208
aI219
aI220
aI209
aI216
aI215
aI218
aI225
aI224
aI210
aI227
aI212
aI223
aI222
aI233
aI239
aI226
aI221
aI232
aI217
aI228
aI231
aI234
aI230
aI236
aI214
aI240
aI235
aI237
aI14
aI73
aI11
aI15
aI17
aI18
aI12
aI13
aI39
aI62
aI16
aI22
aI74
aI99
aI126
aI8
aI10
aI120
aI34
aI53
aa(lp6
I14
aI11
aI73
aI39
aI15
aI22
aI10
aI12
aI9
aI8
aI62
aI17
aI53
aI74
aI41
aI13
aI34
aI68
aI50
aI18
aI83
aI40
aI99
aI16
aI27
aI30
aI110
aI35
aI86
aI28
aI3
aI96
aI88
aI72
aI90
aI45
aI93
aI101
aI77
aI100
aI97
aI91
aI2
aI44
aI54
aI31
aI56
aI24
aI4
aI51
aa(lp7
I73
aI39
aI28
aI34
aI11
aI14
aI62
aI72
aI97
aI74
aI91
aI40
aI30
aI24
aI22
aI77
aI35
aI8
aI19
aI99
aI88
aI4
aI23
aI68
aI54
aI93
aI27
aI83
aI45
aI9
aI44
aI86
aI18
aI126
aI2
aI52
aI71
aI59
aI13
aI17
aI100
aI47
aI16
aI15
aI53
aI31
aI37
aI197
aI57
aI90
aa(lp8
I14
aI11
aI73
aI39
aI22
aI15
aI10
aI12
aI9
aI8
aI62
aI17
aI53
aI74
aI41
aI13
aI34
aI68
aI50
aI18
aI83
aI40
aI99
aI16
aI27
aI30
aI110
aI35
aI86
aI28
aI3
aI96
aI88
aI72
aI90
aI45
aI93
aI101
aI77
aI100
aI97
aI91
aI2
aI44
aI54
aI31
aI56
aI24
aI4
aI51
aa(lp9
I5
aI240
aI238
aI237
aI236
aI229
aI221
aI213
aI211
aI206
aI205
aI204
aI202
aI194
aI190
aI188
aI187
aI186
aI180
aI179
aI176
aI164
aI163
aI159
aI153
aI146
aI134
aI125
aI121
aI116
aI115
aI114
aI113
aI112
aI111
aI95
aI94
aI89
aI87
aI64
aI63
aI61
aI60
aI51
aI49
aI42
aI41
aI7
aI6
aI123
aa(lp10
I14
aI11
aI73
aI39
aI15
aI22
aI10
aI12
aI9
aI8
aI62
aI17
aI53
aI74
aI41
aI13
aI34
aI68
aI50
aI18
aI83
aI40
aI99
aI16
aI27
aI30
aI110
aI35
aI86
aI28
aI3
aI96
aI88
aI72
aI90
aI45
aI93
aI101
aI77
aI100
aI97
aI91
aI2
aI44
aI54
aI31
aI56
aI24
aI4
aI51
aa(lp11
I5
aI238
aI205
aI113
aI204
aI164
aI163
aI134
aI114
aI112
aI95
aI211
aI229
aI116
aI115
aI64
aI61
aI213
aI202
aI111
aI7
aI206
aI159
aI158
aI94
aI42
aI173
aI174
aI156
aI123
aI141
aI157
aI122
aI136
aI92
aI179
aI180
aI237
aI240
aI203
aI221
aI200
aI172
aI171
aI235
aI189
aI177
aI121
aI217
aI188
aa(lp12
I14
aI11
aI73
aI39
aI22
aI15
aI10
aI12
aI9
aI8
aI62
aI17
aI53
aI74
aI41
aI13
aI34
aI68
aI50
aI18
aI83
aI40
aI99
aI16
aI27
aI30
aI110
aI35
aI86
aI28
aI3
aI96
aI88
aI72
aI90
aI45
aI93
aI101
aI77
aI100
aI97
aI91
aI2
aI44
aI54
aI31
aI56
aI24
aI4
aI51
aa(lp13
I5
aI238
aI229
aI213
aI211
aI206
aI205
aI204
aI202
aI164
aI163
aI159
aI134
aI116
aI115
aI114
aI113
aI112
aI111
aI95
aI94
aI64
aI61
aI42
aI7
aI179
aI180
aI188
aI176
aI187
aI190
aI194
aI186
aI121
aI146
aI60
aI87
aI6
aI123
aI89
aI153
aI49
aI173
aI156
aI125
aI157
aI172
aI63
aI51
aI69
aa.