(lp0
(lp1
I699
aI286
aI2374
aI1052
aI408
aI2013
aI3714
aI517
aI483
aI1221
aI2
aI690
aI666
aI326
aI934
aI902
aI734
aI1146
aI322
aI546
aI877
aI656
aI220
aI409
aI1018
aI1183
aI905
aI2665
aI190
aI775
aI247
aI2377
aI1643
aI959
aI508
aI4362
aI5201
aI1350
aI1274
aI773
aI1247
aI1687
aI1072
aI331
aI711
aI432
aI30
aI430
aI1065
aI1404
aa(lp2
I699
aI286
aI409
aI410
aI902
aI1052
aI1146
aI666
aI656
aI7
aI220
aI2
aI2377
aI934
aI31
aI1221
aI326
aI432
aI905
aI690
aI322
aI1089
aI1018
aI82
aI1072
aI734
aI439
aI517
aI1200
aI1404
aI922
aI247
aI1065
aI483
aI1350
aI508
aI190
aI1157
aI1214
aI1021
aI107
aI1274
aI331
aI4
aI71
aI1247
aI495
aI1374
aI546
aI747
aa(lp3
I326
aI409
aI1332
aI711
aI905
aI686
aI656
aI1141
aI1261
aI3
aI488
aI666
aI247
aI841
aI1229
aI1028
aI339
aI1107
aI2
aI1374
aI1225
aI432
aI1157
aI902
aI626
aI884
aI1005
aI7
aI697
aI14
aI767
aI177
aI1090
aI1224
aI1111
aI699
aI1030
aI1018
aI495
aI1029
aI934
aI1230
aI716
aI1407
aI1150
aI15
aI1021
aI1146
aI1200
aI833
aa(lp4
I326
aI409
aI905
aI286
aI697
aI1005
aI432
aI1028
aI699
aI3
aI247
aI902
aI1141
aI2
aI934
aI339
aI711
aI841
aI626
aI767
aI751
aI1125
aI1229
aI666
aI1021
aI1214
aI1090
aI1247
aI1107
aI225
aI1261
aI782
aI1225
aI1221
aI1065
aI1347
aI988
aI1201
aI1073
aI1407
aI741
aI1146
aI1089
aI1030
aI1072
aI772
aI754
aI1213
aI4
aI884
aa(lp5
I905
aI326
aI409
aI1141
aI711
aI286
aI666
aI1005
aI1028
aI626
aI902
aI699
aI2
aI934
aI697
aI247
aI3
aI1021
aI432
aI1214
aI751
aI339
aI767
aI782
aI841
aI1090
aI1247
aI1225
aI1125
aI716
aI1229
aI988
aI754
aI714
aI1374
aI1347
aI741
aI1073
aI1261
aI690
aI1146
aI785
aI784
aI738
aI1052
aI884
aI734
aI1107
aI704
aI791
aa(lp6
I326
aI409
aI905
aI286
aI247
aI432
aI711
aI697
aI699
aI1005
aI3
aI1028
aI1141
aI2
aI902
aI626
aI934
aI666
aI841
aI767
aI339
aI1229
aI1125
aI1021
aI751
aI1214
aI1090
aI1247
aI782
aI1261
aI225
aI1107
aI1225
aI1347
aI1073
aI1065
aI988
aI1221
aI1146
aI1201
aI1407
aI754
aI552
aI1072
aI884
aI741
aI1332
aI734
aI1089
aI772
aa(lp7
I699
aI286
aI409
aI410
aI902
aI1052
aI1146
aI666
aI656
aI7
aI2377
aI220
aI2
aI31
aI326
aI1221
aI934
aI432
aI690
aI905
aI322
aI82
aI1018
aI1089
aI517
aI734
aI439
aI1072
aI922
aI1404
aI483
aI1065
aI1200
aI247
aI508
aI190
aI107
aI1350
aI1157
aI1274
aI331
aI1021
aI71
aI4
aI1214
aI1846
aI546
aI775
aI1247
aI495
aa(lp8
I326
aI409
aI905
aI286
aI247
aI432
aI711
aI697
aI699
aI1005
aI3
aI1028
aI1141
aI2
aI902
aI626
aI934
aI666
aI841
aI767
aI339
aI1229
aI1125
aI1021
aI751
aI1214
aI1090
aI1247
aI782
aI1261
aI225
aI1107
aI1225
aI1347
aI1073
aI1065
aI988
aI1221
aI1146
aI1201
aI1407
aI754
aI552
aI1072
aI884
aI741
aI1332
aI734
aI1089
aI772
aa(lp9
I5
aI7114
aI7113
aI7112
aI7111
aI7110
aI7109
aI7108
aI7107
aI7106
aI7105
aI7104
aI7103
aI7102
aI7101
aI7100
aI7099
aI7098
aI7097
aI7096
aI7095
aI7094
aI7093
aI7092
aI7091
aI7090
aI7089
aI7088
aI7087
aI7086
aI7085
aI7084
aI7083
aI7082
aI7081
aI7080
aI7079
aI7078
aI7077
aI7076
aI7075
aI7074
aI7073
aI7072
aI7071
aI7070
aI7069
aI7068
aI7067
aI7066
aa(lp10
I5
aI7114
aI7113
aI7112
aI7111
aI7110
aI7109
aI7108
aI7107
aI7106
aI7105
aI7104
aI7103
aI7102
aI7101
aI7100
aI7099
aI7098
aI7097
aI7096
aI7095
aI7094
aI7093
aI7092
aI7091
aI7090
aI7089
aI7088
aI7087
aI7086
aI7085
aI7084
aI7083
aI7082
aI7081
aI7080
aI7079
aI7078
aI7077
aI7076
aI7075
aI7074
aI7073
aI7072
aI7071
aI7070
aI7069
aI7068
aI7067
aI7066
aa(lp11
I5
aI7114
aI7113
aI7112
aI7111
aI7110
aI7109
aI7108
aI7107
aI7106
aI7105
aI7104
aI7103
aI7102
aI7101
aI7100
aI7099
aI7098
aI7097
aI7096
aI7095
aI7094
aI7093
aI7092
aI7091
aI7090
aI7089
aI7088
aI7087
aI7086
aI7085
aI7084
aI7083
aI7082
aI7081
aI7080
aI7079
aI7078
aI7077
aI7076
aI7075
aI7074
aI7073
aI7072
aI7071
aI7070
aI7069
aI7068
aI7067
aI7066
aa(lp12
I326
aI409
aI905
aI286
aI247
aI432
aI711
aI697
aI699
aI1005
aI3
aI1028
aI1141
aI2
aI902
aI626
aI934
aI666
aI841
aI767
aI339
aI1229
aI1125
aI1021
aI751
aI1214
aI1090
aI1247
aI782
aI1261
aI225
aI1107
aI1225
aI1347
aI1073
aI1065
aI988
aI1221
aI1146
aI1201
aI1407
aI754
aI552
aI1072
aI884
aI741
aI1332
aI734
aI1089
aI772
aa(lp13
I5
aI7114
aI7113
aI7112
aI7111
aI7110
aI7109
aI7108
aI7107
aI7106
aI7105
aI7104
aI7103
aI7102
aI7101
aI7100
aI7099
aI7098
aI7097
aI7096
aI7095
aI7094
aI7093
aI7092
aI7091
aI7090
aI7089
aI7088
aI7087
aI7086
aI7085
aI7084
aI7083
aI7082
aI7081
aI7080
aI7079
aI7078
aI7077
aI7076
aI7075
aI7074
aI7073
aI7072
aI7071
aI7070
aI7069
aI7068
aI7067
aI7066
aa(lp14
I326
aI409
aI905
aI286
aI247
aI432
aI711
aI697
aI699
aI1005
aI3
aI1028
aI1141
aI2
aI902
aI626
aI934
aI666
aI841
aI767
aI339
aI1229
aI1125
aI1021
aI751
aI1214
aI1090
aI1247
aI782
aI1261
aI225
aI1107
aI1225
aI1347
aI1073
aI1065
aI988
aI1221
aI1146
aI1201
aI1407
aI754
aI552
aI1072
aI884
aI741
aI1332
aI734
aI1089
aI772
aa(lp15
I326
aI409
aI905
aI286
aI247
aI432
aI711
aI697
aI699
aI1005
aI3
aI1028
aI1141
aI2
aI902
aI626
aI934
aI666
aI841
aI767
aI339
aI1229
aI1125
aI1021
aI751
aI1214
aI1090
aI1247
aI782
aI1261
aI225
aI1107
aI1225
aI1347
aI1073
aI1065
aI988
aI1221
aI1146
aI1201
aI1407
aI754
aI552
aI1072
aI884
aI741
aI1332
aI734
aI1089
aI772
aa(lp16
I5
aI7114
aI7112
aI7111
aI7109
aI7108
aI7107
aI7106
aI7105
aI7104
aI7103
aI7102
aI7101
aI7100
aI7099
aI7098
aI7097
aI7096
aI7095
aI7094
aI7093
aI7091
aI7089
aI7088
aI7087
aI7086
aI7085
aI7084
aI7082
aI7081
aI7080
aI7079
aI7077
aI7076
aI7075
aI7074
aI7073
aI7072
aI7071
aI7070
aI7069
aI7064
aI7063
aI7062
aI7061
aI7060
aI7059
aI7058
aI7057
aI7056
aa(lp17
I5
aI7114
aI7112
aI7111
aI7109
aI7108
aI7107
aI7106
aI7105
aI7104
aI7103
aI7102
aI7101
aI7100
aI7099
aI7098
aI7097
aI7096
aI7095
aI7094
aI7093
aI7091
aI7089
aI7088
aI7087
aI7086
aI7085
aI7084
aI7082
aI7081
aI7080
aI7079
aI7077
aI7076
aI7075
aI7074
aI7073
aI7072
aI7071
aI7070
aI7069
aI7064
aI7063
aI7062
aI7061
aI7060
aI7059
aI7058
aI7057
aI7056
aa(lp18
I5
aI7114
aI7112
aI7111
aI7109
aI7108
aI7107
aI7106
aI7105
aI7104
aI7103
aI7102
aI7101
aI7100
aI7099
aI7098
aI7097
aI7096
aI7095
aI7094
aI7093
aI7091
aI7089
aI7088
aI7087
aI7086
aI7085
aI7084
aI7082
aI7081
aI7080
aI7079
aI7077
aI7076
aI7075
aI7074
aI7073
aI7072
aI7071
aI7070
aI7069
aI7064
aI7063
aI7062
aI7061
aI7060
aI7059
aI7058
aI7057
aI7056
aa(lp19
I5
aI7114
aI7112
aI7111
aI7109
aI7108
aI7107
aI7106
aI7105
aI7104
aI7103
aI7102
aI7101
aI7100
aI7099
aI7098
aI7097
aI7096
aI7095
aI7094
aI7093
aI7091
aI7089
aI7088
aI7087
aI7086
aI7085
aI7084
aI7082
aI7081
aI7080
aI7079
aI7077
aI7076
aI7075
aI7074
aI7073
aI7072
aI7071
aI7070
aI7069
aI7064
aI7063
aI7062
aI7061
aI7060
aI7059
aI7058
aI7057
aI7056
aa(lp20
I326
aI409
aI905
aI286
aI247
aI432
aI711
aI697
aI699
aI1005
aI3
aI1028
aI1141
aI2
aI902
aI626
aI934
aI666
aI841
aI767
aI339
aI1229
aI1125
aI1021
aI751
aI1214
aI1090
aI1247
aI782
aI1261
aI225
aI1107
aI1225
aI1347
aI1073
aI1065
aI988
aI1221
aI1146
aI1201
aI1407
aI754
aI552
aI1072
aI884
aI741
aI1332
aI734
aI1089
aI772
aa(lp21
I5
aI7114
aI7113
aI7112
aI7111
aI7110
aI7109
aI7108
aI7107
aI7106
aI7105
aI7104
aI7103
aI7102
aI7101
aI7100
aI7099
aI7098
aI7097
aI7096
aI7095
aI7094
aI7093
aI7092
aI7091
aI7090
aI7089
aI7088
aI7087
aI7086
aI7085
aI7084
aI7083
aI7082
aI7081
aI7080
aI7079
aI7078
aI7077
aI7076
aI7075
aI7074
aI7073
aI7072
aI7071
aI7070
aI7069
aI7068
aI7067
aI7066
aa(lp22
I5
aI7114
aI7113
aI7112
aI7111
aI7110
aI7109
aI7108
aI7107
aI7106
aI7105
aI7104
aI7103
aI7102
aI7101
aI7100
aI7099
aI7098
aI7097
aI7096
aI7095
aI7094
aI7093
aI7092
aI7091
aI7090
aI7089
aI7088
aI7087
aI7086
aI7085
aI7084
aI7083
aI7082
aI7081
aI7080
aI7079
aI7078
aI7077
aI7076
aI7075
aI7074
aI7073
aI7072
aI7071
aI7070
aI7069
aI7068
aI7067
aI7066
aa(lp23
I5
aI7114
aI7113
aI7112
aI7111
aI7110
aI7109
aI7108
aI7107
aI7106
aI7105
aI7104
aI7103
aI7102
aI7101
aI7100
aI7099
aI7098
aI7097
aI7096
aI7095
aI7094
aI7093
aI7092
aI7091
aI7090
aI7089
aI7088
aI7087
aI7086
aI7085
aI7084
aI7083
aI7082
aI7081
aI7080
aI7079
aI7078
aI7077
aI7076
aI7075
aI7074
aI7073
aI7072
aI7071
aI7070
aI7069
aI7068
aI7067
aI7066
aa(lp24
I326
aI409
aI905
aI286
aI247
aI432
aI711
aI697
aI699
aI1005
aI3
aI1028
aI1141
aI2
aI902
aI626
aI934
aI666
aI841
aI767
aI339
aI1229
aI1125
aI1021
aI751
aI1214
aI1090
aI1247
aI782
aI1261
aI225
aI1107
aI1225
aI1347
aI1073
aI1065
aI988
aI1221
aI1146
aI1201
aI1407
aI754
aI552
aI1072
aI884
aI741
aI1332
aI734
aI1089
aI772
aa.