(lp0
(lp1
F0.029166666666666667
aF0.0375
aF0.04583333333333333
aF0.05416666666666667
aF0.058333333333333334
aF0.025
aF0.008333333333333333
aF0.020833333333333332
aF0.07083333333333333
aF0.07083333333333333
aF0.07083333333333333
aF0.08333333333333333
aF0.075
aF0.05
aF0.125
aF0.075
aF0.05
aF0.05416666666666667
aF0.05416666666666667
aF0.041666666666666664
aF0.03333333333333333
aF0.0375
aF0.07916666666666666
aF0.04583333333333333
aF0.05416666666666667
aF0.04583333333333333
aF0.03333333333333333
aF0.04583333333333333
aF0.0625
aF0.03333333333333333
aF0.05416666666666667
aF0.041666666666666664
aF0.0375
aF0.025
aF0.05416666666666667
aF0.058333333333333334
aF0.025
aF0.041666666666666664
aF0.029166666666666667
aF0.0875
aF0.058333333333333334
aF0.0375
aF0.03333333333333333
aF0.029166666666666667
aF0.05416666666666667
aF0.04583333333333333
aF0.04583333333333333
aF0.04583333333333333
aF0.0375
aF0.008333333333333333
aF0.029166666666666667
aF0.0125
aF0.029166666666666667
aF0.058333333333333334
aF0.05416666666666667
aF0.020833333333333332
aF0.03333333333333333
aF0.0375
aF0.025
aF0.041666666666666664
aF0.008333333333333333
aF0.016666666666666666
aF0.06666666666666667
aF0.016666666666666666
aF0.016666666666666666
aF0.025
aF0.041666666666666664
aF0.03333333333333333
aF0.0625
aF0.020833333333333332
aF0.025
aF0.03333333333333333
aF0.04583333333333333
aF0.09166666666666666
aF0.058333333333333334
aF0.029166666666666667
aF0.029166666666666667
aF0.05416666666666667
aF0.025
aF0.020833333333333332
aF0.029166666666666667
aF0.025
aF0.025
aF0.05416666666666667
aF0.025
aF0.03333333333333333
aF0.05416666666666667
aF0.008333333333333333
aF0.05
aF0.008333333333333333
aF0.03333333333333333
aF0.05
aF0.03333333333333333
aF0.041666666666666664
aF0.016666666666666666
aF0.0125
aF0.0375
aF0.0375
aF0.029166666666666667
aF0.041666666666666664
aF0.04583333333333333
aF0.03333333333333333
aF0.029166666666666667
aF0.025
aF0.016666666666666666
aF0.020833333333333332
aF0.025
aF0.029166666666666667
aF0.0375
aF0.016666666666666666
aF0.020833333333333332
aF0.020833333333333332
aF0.0125
aF0.008333333333333333
aF0.0125
aF0.016666666666666666
aF0.016666666666666666
aF0.029166666666666667
aF0.041666666666666664
aF0.041666666666666664
aF0.10833333333333334
aF0.008333333333333333
aF0.025
aF0.020833333333333332
aF0.04583333333333333
aF0.0375
aF0.14166666666666666
aF0.08333333333333333
aF0.058333333333333334
aF0.0375
aF0.0375
aF0.058333333333333334
aF0.04583333333333333
aF0.03333333333333333
aF0.0125
aF0.04583333333333333
aF0.03333333333333333
aF0.05
aF0.025
aF0.029166666666666667
aF0.04583333333333333
aF0.029166666666666667
aF0.025
aF0.04583333333333333
aF0.0375
aF0.020833333333333332
aF0.016666666666666666
aF0.03333333333333333
aF0.03333333333333333
aF0.03333333333333333
aF0.04583333333333333
aF0.0375
aF0.025
aF0.0125
aF0.029166666666666667
aF0.025
aF0.029166666666666667
aF0.03333333333333333
aF0.016666666666666666
aF0.025
aF0.029166666666666667
aF0.029166666666666667
aF0.025
aF0.0125
aF0.0125
aF0.05
aF0.05
aF0.06666666666666667
aF0.0375
aF0.05416666666666667
aF0.05416666666666667
aF0.029166666666666667
aF0.029166666666666667
aF0.025
aF0.029166666666666667
aF0.029166666666666667
aF0.020833333333333332
aF0.020833333333333332
aF0.03333333333333333
aF0.008333333333333333
aF0.008333333333333333
aF0.03333333333333333
aF0.05
aF0.041666666666666664
aF0.05
aF0.05
aF0.0375
aF0.025
aF0.016666666666666666
aF0.025
aF0.025
aF0.05
aF0.04583333333333333
aF0.075
aF0.03333333333333333
aF0.03333333333333333
aF0.058333333333333334
aF0.0625
aF0.025
aF0.0375
aF0.020833333333333332
aF0.041666666666666664
aF0.020833333333333332
aF0.025
aF0.0125
aF0.008333333333333333
aF0.025
aF0.075
aF0.07916666666666666
aF0.075
aF0.058333333333333334
aF0.004166666666666667
aF0.0625
aF0.020833333333333332
aF0.041666666666666664
aF0.0625
aF0.05416666666666667
aF0.029166666666666667
aF0.058333333333333334
aF0.07916666666666666
aF0.058333333333333334
aF0.008333333333333333
aF0.041666666666666664
aF0.0375
aF0.041666666666666664
aF0.05416666666666667
aF0.03333333333333333
aF0.05
aF0.0375
aF0.016666666666666666
aF0.05416666666666667
aF0.041666666666666664
aF0.0375
aF0.029166666666666667
aF0.0375
aF0.025
aF0.025
aF0.020833333333333332
aF0.008333333333333333
aF0.03333333333333333
aF0.008333333333333333
aa(lp2
F0.0008412823881608289
aF0.003925851027535679
aF0.0065185126252428095
aF0.0042290535495602575
aF0.007886438613118411
aF0.0
aF0.0
aF0.0
aF0.00972936006105203
aF0.007155743083748303
aF0.004229333931066997
aF0.01224842643854434
aF0.0039641431545707284
aF0.005743844289322902
aF0.012641405696064147
aF0.005143158944913708
aF0.005146461958615443
aF0.005611960467565284
aF0.006780891321700874
aF0.008574505263835809
aF0.0040081861904560645
aF0.0013170111404944042
aF0.010470128707845602
aF0.007644011387060825
aF0.010090422565579469
aF0.004398289937608176
aF0.001508431952502804
aF0.0071015811357222755
aF0.013446400865046502
aF0.002009463047653084
aF0.010736578095486156
aF0.004617007154771738
aF0.002046233971996955
aF0.00033479444036606227
aF0.01317090555284316
aF0.009353509739000756
aF0.0003781212201714294
aF0.004533792291222147
aF0.0029929313480568714
aF0.014893273699691864
aF0.01064387254167743
aF0.0
aF0.0
aF0.0025308861358152596
aF0.00691012138843863
aF0.007067554496294036
aF0.0024742980329418283
aF0.005152922502177896
aF0.0043552850950358156
aF0.0
aF0.0009571755243826374
aF0.0
aF0.0059945837816071604
aF0.004928553709936486
aF0.007672542843003643
aF0.003135449493897684
aF0.0027044252613413334
aF0.004387991376746607
aF0.0002735023577073786
aF0.005693887739176495
aF0.0
aF0.0
aF0.011553744916256173
aF0.0
aF0.0
aF0.00047673937923073243
aF0.002876866323628341
aF0.003704059432354412
aF0.00804783775725004
aF8.756309357773794e-05
aF0.0001455183443938674
aF0.005555321211558256
aF0.010968406471336475
aF0.015428116257902795
aF0.011033386857012209
aF0.0007843542725403422
aF0.0023136581919063755
aF0.009675210082113441
aF0.0012499020402278464
aF0.0010331969245204217
aF0.0035316172628989196
aF0.0009530746546959934
aF0.0007254362811371179
aF0.00743796154229445
aF0.0007571367691660579
aF0.001591409599213497
aF0.006929274393851629
aF0.0
aF0.00826710166131954
aF0.0
aF0.004416240251598975
aF0.010464047150436763
aF0.0012591803922870869
aF0.007743745750414159
aF0.0
aF0.0
aF0.0014267276092359159
aF0.01115844708010288
aF0.0021393915653083752
aF0.008820188523000401
aF0.005361633855888004
aF0.0034147803089803748
aF0.0012053793450900853
aF0.0037111888729098584
aF0.0006241792551938995
aF0.001080433474215778
aF0.000828940304620221
aF0.0007276109919731919
aF0.002431002739064013
aF0.0005796208188990615
aF0.0001326327476955092
aF0.0
aF0.0
aF0.0
aF0.0
aF0.0
aF0.0
aF0.0008012469283389785
aF0.000785357812031452
aF0.0009917590932235283
aF0.0034254705855124253
aF0.0
aF0.00011884007438400744
aF2.0048814504881454e-05
aF0.001825238965667836
aF0.0
aF0.006747141166597234
aF0.004024000464900045
aF0.0031509040897116213
aF0.0010308611367711785
aF0.0011133525934781167
aF0.0013282443381815766
aF0.0027883763919328785
aF0.0011710166770313212
aF0.0
aF0.0016982134555356312
aF0.00028105698346284123
aF0.0011159544488519382
aF0.0008832975098665474
aF0.0001718954085585884
aF0.0015160307498173608
aF0.00013623231719466026
aF0.001214163954749729
aF0.0014296852515994776
aF0.0007115876336587634
aF0.0007882546323968917
aF0.0
aF0.0009285548249983398
aF0.00021624078501693566
aF0.0003702458435722033
aF0.0011909780712081965
aF0.0008971816189389409
aF0.001146283013437825
aF0.0
aF0.0017019907684133623
aF0.00013832851829713753
aF5.6950255695025566e-05
aF6.101813110181311e-05
aF0.00010460251046025105
aF0.0
aF0.0003606673428849161
aF0.00019276748356246263
aF0.0005939928272564257
aF0.0
aF0.0
aF0.0019559009098758053
aF0.0025733594915080277
aF0.00304084818598417
aF0.0003837085740851431
aF0.0017085145890062203
aF0.0019952098691638446
aF0.00026939297336786875
aF6.550109583582388e-05
aF3.793916450820217e-05
aF0.0001592282659228266
aF0.0007934640034535432
aF0.0
aF0.001198570432357043
aF0.00047042828162075016
aF0.0
aF0.0
aF0.0002634873843032839
aF0.0016283539217639637
aF0.00019278131987337006
aF0.0012192305602347444
aF0.0017742924110601935
aF0.0
aF0.0
aF0.0
aF0.0007813849040313476
aF0.0
aF0.0024989270569814497
aF0.00033375257355382877
aF0.002853578120314522
aF0.0
aF0.0003354959487281664
aF0.0010286190254809502
aF0.004686340894499891
aF0.00010808926080892607
aF0.0007749038502176577
aF0.0001545528506825578
aF0.00096042488040396
aF0.0
aF0.0004294514179451418
aF0.0
aF0.0
aF0.0
aF0.0005550680916789702
aF0.001516005738024566
aF0.0011290099757672982
aF0.001757322175732217
aF0.0
aF0.001512138489125937
aF0.0
aF0.0007557047109871377
aF0.0011220652120233709
aF0.0013864260255473644
aF0.0003968530694472118
aF0.0007705361719483058
aF0.0013730707925268596
aF0.000496848088375285
aF0.0
aF0.00040516869230258345
aF0.00017534756812999489
aF0.0003046447005652026
aF0.0007927237608199951
aF0.0003193505703965955
aF0.0005683924590828357
aF0.0012672400433906713
aF0.0
aF0.0018485588098558813
aF0.0015934103185672223
aF0.0006475074205199728
aF7.182428992052424e-05
aF0.0005409167386154833
aF5.898419339841933e-05
aF0.0
aF0.0
aF0.0
aF0.00028760155852206054
aF0.0
aa(lp3
F0.0011563971556580246
aF0.002449332313746314
aF0.005887447197176525
aF0.0033423577723409115
aF0.002780619992507012
aF0.003701936860007374
aF0.0021847261415772166
aF0.0008862279731169714
aF0.012617269798762482
aF0.010203352451426598
aF0.010504034501575115
aF0.018037591720783612
aF0.011182274408792596
aF0.016604678868986544
aF0.022346151558683046
aF0.012985829002073793
aF0.00988014182780857
aF0.01427468893396103
aF0.011533576226328559
aF0.002393339656769155
aF0.001785935668165261
aF0.001293123824817354
aF0.016328232519028943
aF0.0026009204674485287
aF0.0034173496684135373
aF0.0017981653225035122
aF0.001295455578161106
aF0.0062068012677058745
aF0.005093843202436003
aF0.0013472538949731603
aF0.005638477163168985
aF0.002891731810430102
aF0.0029456375064664127
aF0.0019281880055370603
aF0.007454152912295333
aF0.00569375804835541
aF0.0011898583032788842
aF0.002226550730942435
aF0.0016017128744843757
aF0.017331885990358262
aF0.006014680557898784
aF0.00726562384867768
aF0.0008862279731169714
aF0.0018596519177839351
aF0.004260626289298209
aF0.0044168041306818055
aF0.002390812949135321
aF0.00283350267224196
aF0.0034186560732512006
aF0.001973981378054329
aF0.007130254161758122
aF0.0031797931538257804
aF0.004022674575733903
aF0.00808103059422039
aF0.0043308257449807775
aF0.003919286119147424
aF0.003324261004348842
aF0.002608797391132976
aF0.0012641460206809856
aF0.0026675190612319133
aF0.001960792334833325
aF0.0008862279731169714
aF0.012432558849875213
aF0.0030805602529643352
aF0.0008862279731169714
aF0.0014610930451842028
aF0.0023009603091588534
aF0.0026781103757537146
aF0.005226909403787389
aF0.0013415144198568553
aF0.001629943252509895
aF0.0019070389941344746
aF0.0061247950777599406
aF0.020422286891691843
aF0.011801537109574586
aF0.00360234646872776
aF0.0020474829972679407
aF0.004873272092219791
aF0.0018541458283030084
aF0.0025579868664169286
aF0.0016898198252209944
aF0.0011735139824673542
aF0.002482518249407154
aF0.0070638137959226875
aF0.0013811898671618793
aF0.0017146990424491016
aF0.006067997078844969
aF0.002158185813963722
aF0.0061245897135403906
aF0.0019983996269978097
aF0.004929756540302229
aF0.003993332156034427
aF0.0012880076382050783
aF0.006481781108282085
aF0.0010745621911270216
aF0.0008862279731169714
aF0.005194224279922508
aF0.0035812931196352
aF0.00354752477846589
aF0.008682020883185844
aF0.004297199460494651
aF0.005339660494681714
aF0.0019200970503002943
aF0.0014274353133924215
aF0.0014274353133924215
aF0.001635656671723842
aF0.0017624673906797802
aF0.001826490553634633
aF0.0018447414813215772
aF0.001329714744631592
aF0.005737508779733626
aF0.0008862279731169714
aF0.0008862279731169714
aF0.0008862279731169714
aF0.0008862279731169714
aF0.0008862279731169714
aF0.0008862279731169714
aF0.0031079949334468595
aF0.0046658773540093216
aF0.005651902270668743
aF0.016564138664586888
aF0.0017295183067391276
aF0.0013816743298331333
aF0.0013054093902023585
aF0.004805106575421582
aF0.007089498076508176
aF0.019295878270764122
aF0.009413622896984306
aF0.009243251682308603
aF0.005998815170380473
aF0.005070315319929784
aF0.009202055102585033
aF0.007085014949158286
aF0.0025684250294358887
aF0.0008862279731169714
aF0.005184729672526567
aF0.0012887649765007466
aF0.0050324459573918515
aF0.0020575873159408807
aF0.0036257805544445557
aF0.005749977906081977
aF0.0010688145628544056
aF0.0022184941737828524
aF0.003520232163999234
aF0.0023484653098153636
aF0.0029094665614772183
aF0.0024778823971235452
aF0.0015895122544510119
aF0.0034677080921036102
aF0.0014890416141594112
aF0.0030805068700500695
aF0.005269245678114408
aF0.0028946114187884016
aF0.004880475463074875
aF0.002220216039441084
aF0.0015248647964770457
aF0.0010112457569134794
aF0.0010294963575119905
aF0.0011373402637970382
aF0.0008862279731169714
aF0.001829337098929195
aF0.002211495533815401
aF0.003494772460458107
aF0.0008862279731169714
aF0.0008862279731169714
aF0.003302248191976047
aF0.004807504686453622
aF0.006280281421974594
aF0.002100925945064726
aF0.0023929884540594684
aF0.005857437531111049
aF0.001644580111154956
aF0.001644580111154956
aF0.0010367561350246943
aF0.0010624871613679437
aF0.0026676572225930854
aF0.003270946943554903
aF0.0019081979729557166
aF0.0022054369088956626
aF0.001291839942109467
aF0.0023900861969584145
aF0.0013005861121522001
aF0.002214919698539399
aF0.002190092300432696
aF0.002924033312479686
aF0.0031685472802842683
aF0.006154993065234552
aF0.0028050783845293007
aF0.0017422877929444756
aF0.002170779594316762
aF0.0026882687902436866
aF0.0024911253140069934
aF0.002820071849418718
aF0.007927195785959396
aF0.0038831471633948883
aF0.0014304916149210857
aF0.0036979692259994684
aF0.004480539244254048
aF0.0031602269689046183
aF0.004022141609446857
aF0.001741281176682384
aF0.0016848019029566614
aF0.0008862279731169714
aF0.0012000588427381437
aF0.0008862279731169714
aF0.0008862279731169714
aF0.0008862279731169714
aF0.01271636629574162
aF0.012324477895417987
aF0.010537602565038459
aF0.005164311851971639
aF0.0010117841184570048
aF0.006931905341756633
aF0.0008862279731169714
aF0.0023722191545600332
aF0.00807687709030929
aF0.006739034382111103
aF0.0018401688416256954
aF0.007789054214394457
aF0.010541392293753652
aF0.009505867274916606
aF0.0021007363273726418
aF0.0033518817705863613
aF0.003568251243672858
aF0.006572984162080553
aF0.006380011383561681
aF0.002813803224113385
aF0.0047994796869868794
aF0.003078638158899829
aF0.0008862279731169714
aF0.003235880537952709
aF0.003013362501198709
aF0.002651152503465726
aF0.004094362745865814
aF0.0025276306099808483
aF0.0019297333099360214
aF0.003381158067244197
aF0.001279118428694385
aF0.0008862279731169714
aF0.004363305184759533
aF0.0016801515786013228
aa(lp4
F0.0912125557680051
aF0.11692197712418302
aF0.13907920310981536
aF0.13948586744639377
aF0.1272111111111111
aF0.13767705382436263
aF0.11435294117647057
aF0.0
aF0.171597721822542
aF0.176030135301353
aF0.17933897243107771
aF0.20128340365682137
aF0.18001572327044027
aF0.1628128555176337
aF0.21201851851851852
aF0.1841859716859717
aF0.15388440860215055
aF0.17474053724053726
aF0.160081096196868
aF0.09676301555104802
aF0.080040548098434
aF0.07963967723984419
aF0.18277458492975737
aF0.12138464800678542
aF0.12169430272108844
aF0.09390583989501312
aF0.08458185579196217
aF0.15640710382513665
aF0.14769091847265223
aF0.09465112433862434
aF0.1486111111111111
aF0.13069634703196348
aF0.1282370071684588
aF0.12046506734006736
aF0.16116272522522523
aF0.14368724899598395
aF0.06814880952380953
aF0.10916285278413425
aF0.1072003745318352
aF0.19081666666666666
aF0.1467820512820513
aF0.16474576271186442
aF0.0
aF0.11749794745484402
aF0.13437793427230046
aF0.14113658777120316
aF0.12046506734006736
aF0.1135813492063492
aF0.13177946593001844
aF0.12241813602015114
aF0.1622590702947846
aF0.13425414364640886
aF0.12789320822162648
aF0.17221720818291217
aF0.1378733140655106
aF0.12586851363236587
aF0.13708093869731802
aF0.1166361043194784
aF0.0886694547707559
aF0.11042631172839507
aF0.1148936170212766
aF0.0
aF0.17668209876543212
aF0.1282321899736148
aF0.0
aF0.10624536005939125
aF0.1111985236985237
aF0.11778806584362139
aF0.15640710382513665
aF0.09335453359425962
aF0.11250982704402518
aF0.1135813492063492
aF0.1500131027253669
aF0.19631344307270235
aF0.173469696969697
aF0.1262014991181658
aF0.11093992248062017
aF0.13668815663801337
aF0.10891362252663622
aF0.12520778652668416
aF0.10600925925925926
aF0.08642059178743962
aF0.11171935987509758
aF0.15589596949891069
aF0.10000873515024458
aF0.10484432234432235
aF0.1467820512820513
aF0.11381733021077284
aF0.14769091847265223
aF0.12366412213740459
aF0.1458843017329256
aF0.14030637254901962
aF0.008333333333333333
aF0.1467820512820513
aF0.004166666666666667
aF0.0
aF0.14814958592132507
aF0.14499746707193517
aF0.1285826594788859
aF0.15848560354374308
aF0.14113658777120316
aF0.14633179959100204
aF0.11412480063795855
aF0.1111985236985237
aF0.11198161189358374
aF0.11578681229773463
aF0.1072003745318352
aF0.1072003745318352
aF0.11171935987509758
aF0.0926294498381877
aF0.15538816503800218
aF0.0
aF0.0
aF0.0
aF0.0
aF0.0
aF0.0
aF0.06528954802259887
aF0.08109649122807018
aF0.07781986531986533
aF0.11672979797979798
aF0.05073375262054507
aF0.008333333333333333
aF0.008333333333333333
aF0.08284050179211469
aF0.08673835125448029
aF0.12629781420765027
aF0.0885536398467433
aF0.09063725490196078
aF0.08284050179211469
aF0.08195921985815603
aF0.09511316872427984
aF0.08958333333333333
aF0.06420138888888889
aF0.0
aF0.07553104575163398
aF0.008333333333333333
aF0.0694069069069069
aF0.06066272965879265
aF0.06018880208333333
aF0.07479773462783171
aF0.005555555555555555
aF0.06018880208333333
aF0.062130376344086025
aF0.04970430107526882
aF0.06263550135501356
aF0.059313725490196076
aF0.04755658436213992
aF0.05926282051282051
aF0.04876054852320675
aF0.06066272965879265
aF0.07133487654320987
aF0.06018880208333333
aF0.06612021857923497
aF0.06314890710382513
aF0.05068530701754386
aF0.004166666666666667
aF0.004166666666666667
aF0.004166666666666667
aF0.0
aF0.04585813492063492
aF0.05664828431372549
aF0.06263550135501356
aF0.0
aF0.0
aF0.04961240310077519
aF0.06564102564102564
aF0.06772486772486772
aF0.04183006535947712
aF0.04904214559386973
aF0.06274509803921569
aF0.0367816091954023
aF0.0367816091954023
aF0.004166666666666667
aF0.004166666666666667
aF0.05541125541125541
aF0.054017857142857145
aF0.04444444444444444
aF0.046886446886446886
aF0.03517441860465117
aF0.03705128205128205
aF0.042244224422442245
aF0.04904214559386973
aF0.046886446886446886
aF0.06095238095238095
aF0.05688888888888889
aF0.07318548387096774
aF0.055335365853658544
aF0.04932065217391304
aF0.03987538940809968
aF0.05466867469879519
aF0.0547008547008547
aF0.05333333333333334
aF0.07619047619047618
aF0.06482142857142857
aF0.04539007092198581
aF0.05614035087719298
aF0.06772486772486772
aF0.04961240310077519
aF0.05541125541125541
aF0.03950617283950617
aF0.05079365079365079
aF0.0
aF0.03615819209039548
aF0.0
aF0.0
aF0.0
aF0.07653061224489796
aF0.075
aF0.06944444444444445
aF0.05514705882352941
aF0.004166666666666667
aF0.06818181818181818
aF0.0
aF0.04310344827586207
aF0.06578947368421052
aF0.0625
aF0.042134831460674156
aF0.05952380952380952
aF0.078125
aF0.06696428571428571
aF0.04449074074074075
aF0.05136986301369863
aF0.05357142857142857
aF0.056818181818181816
aF0.06578947368421052
aF0.048701298701298704
aF0.0528169014084507
aF0.05136986301369863
aF0.0
aF0.04807692307692308
aF0.05067567567567568
aF0.05136986301369863
aF0.0528169014084507
aF0.04746835443037975
aF0.0390625
aF0.04602490421455939
aF0.035046728971962614
aF0.0
aF0.052083333333333336
aF0.04214912280701755
aa(lp5
F7.957651218376258e-07
aF3.0539661101323595e-06
aF1.0635580587444328e-05
aF4.5868979767640664e-06
aF4.2680791726531404e-06
aF7.329929373717553e-06
aF3.011147593714333e-06
aF4.228652442019932e-66
aF3.4241182600882704e-05
aF2.3536422911407804e-05
aF3.256473808493704e-05
aF7.935506903760971e-05
aF5.914622814501283e-05
aF5.4220967911934825e-05
aF8.487048605044713e-05
aF7.118743089249921e-05
aF4.9817509991906996e-05
aF6.988882601843375e-05
aF6.0171722019915193e-05
aF4.778283180928058e-07
aF9.599625100963311e-08
aF9.599625100963311e-08
aF4.4123345411057555e-05
aF2.3351432836820003e-06
aF2.282428939686855e-06
aF2.402330690182346e-06
aF7.127647143155702e-07
aF1.929067400644436e-05
aF1.642358142860869e-05
aF1.145507492603751e-06
aF1.9634816285511853e-05
aF3.2550409184848766e-06
aF7.70995291169488e-06
aF4.848454415354981e-06
aF3.0562809515022164e-05
aF1.835602587150517e-05
aF1.928575570203893e-08
aF2.1635698719255626e-06
aF1.0826781891245223e-06
aF5.3607730452020834e-05
aF1.3585265258705864e-05
aF2.32192002687602e-05
aF4.228652442019932e-66
aF3.87551828339472e-06
aF8.726276240163172e-06
aF7.0076354952565436e-06
aF3.1479326387127536e-06
aF7.300354085787523e-06
aF1.282770862809599e-05
aF4.742740598812933e-06
aF2.4677921844549644e-05
aF1.1852276434440467e-05
aF7.98999073751289e-06
aF2.6549995987564456e-05
aF6.877830855550104e-06
aF1.4040744394428633e-05
aF9.062165373988157e-06
aF4.083142439130997e-06
aF2.9473282783596665e-07
aF1.467054077221049e-06
aF2.324126903187909e-06
aF4.228652442019932e-66
aF5.1695213551339486e-05
aF1.1419413497928726e-05
aF4.228652442019932e-66
aF1.5074397317936864e-06
aF3.235311676686688e-06
aF5.529577140145832e-06
aF1.2228931067271112e-05
aF1.1108983186266122e-06
aF3.298338748442029e-06
aF3.960978743689437e-06
aF1.64177209038153e-05
aF8.395923996763004e-05
aF4.402945194980362e-05
aF8.005023790955053e-06
aF2.3780113169526464e-06
aF8.887767508432512e-06
aF3.68774641057937e-06
aF8.845566823560806e-06
aF9.468781038268948e-07
aF1.9022888478818436e-07
aF1.8038857984511763e-06
aF1.8637774416192324e-05
aF8.956791448950709e-07
aF1.785562570935267e-06
aF1.127377779493377e-05
aF2.605870516764917e-06
aF1.6306982036662617e-05
aF3.7452241180216093e-06
aF8.78874381429241e-06
aF9.115960848129543e-06
aF6.638984333971295e-64
aF1.740687708439571e-05
aF3.340635429195745e-64
aF4.228652442019932e-66
aF2.363328646885053e-05
aF1.0055080938957169e-05
aF6.176555733651661e-06
aF3.691568190660189e-05
aF9.113684007870596e-06
aF1.4192440930048282e-05
aF4.022844117202133e-06
aF3.299516132688951e-06
aF3.299516132688951e-06
aF3.658237677977208e-06
aF2.291840158512954e-06
aF2.291840158512954e-06
aF3.94465685799789e-06
aF8.203079458296501e-07
aF1.3799855975139615e-05
aF4.228652442019932e-66
aF4.228652442019932e-66
aF4.228652442019932e-66
aF4.228652442019932e-66
aF4.228652442019932e-66
aF4.228652442019932e-66
aF4.303734860286523e-06
aF9.854485110379814e-06
aF9.116343811601214e-06
aF3.179044128252086e-05
aF8.750710358623847e-07
aF2.556063559667175e-42
aF2.556063559667175e-42
aF9.198904597930361e-06
aF1.0546232500624761e-05
aF3.49632442947745e-05
aF1.2297338784801752e-05
aF2.2074741068074753e-05
aF1.3899250810214443e-05
aF1.2050090670362702e-05
aF2.106675026435093e-05
aF1.5347996258083124e-05
aF3.4973281572717836e-06
aF4.228652442019932e-66
aF8.31750653053246e-06
aF1.9170476697503786e-42
aF8.030931573893392e-06
aF2.143839178683109e-06
aF5.650053910635848e-06
aF1.1630553829474703e-05
aF1.9170476697503786e-42
aF2.0848445478266036e-06
aF5.85765766677203e-06
aF8.986025031222336e-07
aF3.554057986257142e-06
aF2.229457148275719e-06
aF8.654082738923637e-07
aF2.0299511737463223e-06
aF1.1355301160894576e-06
aF2.226226526583037e-06
aF4.8347397001336975e-06
aF3.1206817845369435e-06
aF4.7382440055630635e-06
aF4.7193046753863554e-06
aF1.421912890963121e-06
aF1.2780317798335874e-42
aF1.2780317798335874e-42
aF3.340635429195745e-64
aF4.228652442019932e-66
aF4.2390787009523413e-07
aF1.481663742692329e-06
aF4.2834662391010804e-06
aF4.228652442019932e-66
aF4.228652442019932e-66
aF7.931585847122179e-10
aF1.5007800403154733e-09
aF2.49154790630822e-09
aF4.4839847258424984e-10
aF5.38996201738435e-10
aF1.8163072183627922e-09
aF2.908770969853915e-10
aF2.908770969853915e-10
aF1.2780317798335874e-42
aF1.2780317798335874e-42
aF7.89701241143518e-10
aF5.344310004136269e-10
aF3.5160892422804957e-10
aF6.661064831170016e-10
aF8.237638579615625e-11
aF1.0167586447602136e-10
aF2.831260096456713e-10
aF5.33133772683028e-10
aF6.64486621443266e-10
aF1.2084729223094716e-09
aF1.3352793933685896e-09
aF2.3447206753204166e-09
aF8.44212368057592e-10
aF4.744701561549644e-10
aF1.8501445674159829e-10
aF9.616082461087455e-10
aF6.43270315260625e-10
aF1.159777650937928e-09
aF2.7871010702415206e-09
aF1.677971225112666e-09
aF4.3352054126222513e-10
aF1.0579017133046538e-09
aF1.8504051819342269e-09
aF8.892446691891829e-10
aF1.5457546574429372e-09
aF3.621457626137798e-10
aF5.597987896300402e-10
aF4.228652442019932e-66
aF1.249047743433078e-10
aF4.228652442019932e-66
aF4.228652442019932e-66
aF4.228652442019932e-66
aF0.43589637636200435
aF0.3879723945867163
aF0.3292605894533414
aF0.16415068940881522
aF3.340635429195745e-64
aF0.1287111590124247
aF4.228652442019932e-66
aF0.012540121758385677
aF0.24069688126937164
aF0.2488885415570631
aF0.04346388935354166
aF0.20201360326911863
aF0.3337180214582526
aF0.33357797629507274
aF0.05105407275820351
aF0.08709843551278328
aF0.09390674949661638
aF0.17640816433264137
aF0.18385510298588956
aF0.06477382601499211
aF0.13564947700761285
aF0.04165566603424238
aF4.228652442019932e-66
aF0.017268951920478334
aF0.03361589202574756
aF0.04504907441947136
aF0.07079128881608972
aF0.022663966098885144
aF0.008060314322080452
aF0.013010252675804272
aF0.003015710610169715
aF4.228652442019932e-66
aF0.06746330598323787
aF0.011232262268103695
aa(lp6
F23.452380952380935
aF31.94999999999997
aF38.183333333333344
aF40.466666666666676
aF35.73333333333333
aF38.69999999999999
aF30.116666666666646
aI0
aF48.58333333333337
aF49.53333333333335
aF49.83333333333335
aF55.25000000000003
aF49.58333333333337
aF44.28333333333335
aF59.500000000000036
aF51.16666666666672
aF41.8166666666667
aF47.666666666666686
aF43.40000000000001
aF27.976190476190464
aF22.632142857142835
aF21.46547619047617
aF51.16666666666669
aF34.19999999999999
aF35.899999999999984
aF26.66904761904761
aF23.11666666666667
aF41.58333333333335
aF40.716666666666676
aF25.60238095238094
aF41.51666666666668
aF36.96666666666667
aF35.09999999999999
aF31.94999999999998
aF44.11666666666667
aF41.01666666666668
aF18.51706349206348
aF30.18333333333331
aF29.049999999999972
aF53.000000000000014
aF41.999999999999986
aF45.366666666666696
aI0
aF30.63333333333331
aF38.133333333333354
aF39.46666666666667
aF33.34999999999997
aF31.28333333333331
aF34.749999999999986
aF32.26666666666665
aF43.41666666666669
aF35.699999999999996
aF33.933333333333316
aF46.75000000000003
aF37.833333333333336
aF32.39999999999998
aF36.61666666666667
aF31.54999999999998
aF23.37142857142856
aF30.66666666666664
aF30.716666666666647
aI0
aF48.28333333333336
aF34.733333333333306
aI0
aF28.799999999999972
aF30.433333333333312
aF31.94999999999997
aF43.900000000000006
aF24.31904761904761
aF28.766666666666648
aF29.56666666666665
aF39.81666666666669
aF54.50000000000003
aF46.58333333333338
aF34.916666666666664
aF30.86666666666664
aF38.93333333333335
aF28.783333333333307
aF31.983333333333317
aF28.676190476190452
aF22.779761904761887
aF29.549999999999983
aF43.36666666666667
aF27.04999999999998
aF27.716666666666647
aF40.850000000000016
aF30.733333333333313
aF39.866666666666674
aF32.649999999999984
aF39.65
aF38.6
aF2.0
aF39.23333333333334
aF1.0
aI0
aF40.26666666666666
aF38.7
aF35.0
aF41.98333333333335
aF38.80000000000002
aF39.09999999999999
aF30.766666666666648
aF28.899999999999977
aF29.199999999999978
aF30.74999999999997
aF28.316666666666638
aF28.316666666666638
aF29.199999999999978
aF24.016666666666655
aF41.166666666666664
aI0
aI0
aI0
aI0
aI0
aI0
aF17.7
aF21.75
aF21.083333333333336
aF31.833333333333336
aF13.96666666666667
aF2.0
aF2.0
aF22.416666666666668
aF24.250000000000004
aF34.333333333333336
aF25.749999999999993
aF24.0
aF22.416666666666664
aF21.916666666666664
aF25.999999999999996
aF24.16666666666666
aF17.533333333333335
aI0
aF20.583333333333336
aF2.0
aF19.250000000000004
aF16.250000000000004
aF16.450000000000006
aF20.5
aF1.5
aF17.166666666666668
aF17.416666666666675
aF13.85
aF17.366666666666667
aF16.983333333333334
aF13.016666666666666
aF17.249999999999996
aF13.216666666666669
aF17.583333333333332
aF20.16666666666666
aF15.500000000000007
aF17.91666666666667
aF16.583333333333343
aF14.15
aF1.0
aF1.0
aF1.0
aI0
aF12.449999999999992
aF16.233333333333334
aF16.16666666666667
aI0
aI0
aF14.816666666666668
aF18.666666666666664
aF19.166666666666668
aF12.51666666666667
aF14.450000000000003
aF18.666666666666664
aF10.583333333333334
aF10.583333333333334
aF1.0
aF1.0
aF15.750000000000004
aF15.583333333333336
aF11.816666666666672
aF13.16666666666667
aF9.416666666666666
aF10.416666666666666
aF11.200000000000001
aF15.06666666666667
aF14.150000000000004
aF17.083333333333332
aF16.333333333333332
aF20.166666666666664
aF16.36666666666667
aF14.400000000000002
aF11.1
aF16.200000000000003
aF15.25
aF15.86666666666667
aF21.66666666666667
aF18.666666666666668
aF11.916666666666666
aF17.16666666666667
aF18.83333333333333
aF13.916666666666668
aF15.833333333333336
aF10.633333333333333
aF13.666666666666668
aI0
aF10.116666666666667
aI0
aI0
aI0
aF21.499999999999996
aF20.999999999999996
aF19.999999999999996
aF15.583333333333336
aF1.0
aF19.583333333333336
aI0
aF13.083333333333332
aF18.83333333333333
aF17.33333333333333
aF11.083333333333334
aF17.250000000000004
aF21.0
aF18.666666666666664
aF12.083333333333336
aF14.083333333333336
aF14.750000000000004
aF15.083333333333337
aF17.499999999999996
aF13.083333333333336
aF14.750000000000004
aF14.0
aI0
aF14.583333333333334
aF14.916666666666664
aF13.583333333333332
aF14.583333333333336
aF13.249999999999998
aF11.18333333333333
aF14.249999999999998
aF9.733333333333334
aI0
aF14.416666666666668
aF11.616666666666669
aa(lp7
F0.0009113493723849372
aF0.004070058084833189
aF0.006337905542272698
aF0.004372480407783756
aF0.008041835469659737
aF0.0
aF0.0
aF0.0
aF0.009221204215647203
aF0.007114601378188807
aF0.004010979804520598
aF0.012151275269715826
aF0.00371528999985241
aF0.0056045563894238926
aF0.01202473892034344
aF0.004844293767018662
aF0.004902799915875229
aF0.005599103153387498
aF0.006627059534878572
aF0.008738643847822717
aF0.0041744634278630096
aF0.0013433466715370482
aF0.009972674438983711
aF0.00792504951093253
aF0.010158622927320629
aF0.0043424881284452425
aF0.0016770975155520132
aF0.007501398332171084
aF0.013677156723432438
aF0.0022720355357973036
aF0.010557469578564418
aF0.004807775015127699
aF0.002222555158453433
aF0.0003204662560049589
aF0.013228269381904321
aF0.00948662616778464
aF0.000407804509530451
aF0.004715555426416653
aF0.0031546858050519135
aF0.014315609653225163
aF0.01058238445066156
aF0.0
aF0.0
aF0.002847028513869519
aF0.007016706884210368
aF0.007131260008264887
aF0.0024785883088707357
aF0.004977530984112226
aF0.004378689682908652
aF0.0
aF0.0009611451023149068
aF0.0
aF0.005872656128932279
aF0.004818114198453285
aF0.0077849772715532835
aF0.003223161707732837
aF0.002883152239084072
aF0.0045838660313032705
aF0.00027966643421664346
aF0.005778764076140297
aF0.0
aF0.0
aF0.011371411322160976
aF0.0
aF0.0
aF0.0005033580726572359
aF0.0029174795499324795
aF0.0037533426221100564
aF0.007912332154018431
aF9.120896150184854e-05
aF0.00014116496203316287
aF0.0058034053928405415
aF0.011232019425719301
aF0.014589153231608774
aF0.01072889916465579
aF0.0007916981442739813
aF0.0024111017024196937
aF0.009701761546862663
aF0.0013036353062067846
aF0.0010521753448008678
aF0.0037133233988621023
aF0.0010597945400072318
aF0.0007178347280334729
aF0.0074499203374399515
aF0.0007400627615062761
aF0.001645974463704589
aF0.006758509850069734
aF0.0
aF0.008110101752230415
aF0.0
aF0.0045035375987912615
aF0.010619475852870203
aF0.0012554238338757166
aF0.007737587906695301
aF0.0
aF0.0
aF0.0014165891833255847
aF0.01122364009818246
aF0.002152124012087401
aF0.00848902676772708
aF0.005433900368414838
aF0.0034644796532436
aF0.001215472639156391
aF0.004063129552146288
aF0.0006455884306302715
aF0.0010665945103052843
aF0.0008672807221447389
aF0.0007372263177702509
aF0.002658211297071129
aF0.000626065395939873
aF0.00013472415930574928
aF0.0
aF0.0
aF0.0
aF0.0
aF0.0
aF0.0
aF0.0008074006276150628
aF0.0007855842243917558
aF0.0010396811560514489
aF0.003351142395010072
aF0.0
aF0.00011070432357043235
aF1.3947001394700136e-05
aF0.0017960638462730513
aF0.0
aF0.006497631915388193
aF0.004001328516452296
aF0.003010954207345421
aF0.0010146443514644356
aF0.001078713389121339
aF0.0013596873547187356
aF0.0028132264063226407
aF0.0011597803347280333
aF0.0
aF0.001746571362157136
aF0.00028910971641097163
aF0.0011456880520688052
aF0.0009511564388656438
aF0.00018353866418719978
aF0.0015182376414070975
aF0.00015363493723849372
aF0.0012523245002324503
aF0.0014342166434216646
aF0.0007304015574151558
aF0.0007641794514179452
aF0.0
aF0.0009998175913012036
aF0.00019246539077431686
aF0.00044456066945606696
aF0.0012195514683093133
aF0.0009219024420166331
aF0.001195826230693734
aF0.0
aF0.0016910739191073917
aF0.00013492997443049744
aF5.404463040446303e-05
aF5.230125523012553e-05
aF9.975980164264681e-05
aF0.0
aF0.0003833246164574616
aF0.0001869285603595227
aF0.0006419979079497907
aF0.0
aF0.0
aF0.0018973733147373314
aF0.0025483060204556014
aF0.002954851425693476
aF0.00042008077638307765
aF0.0018055555555555555
aF0.0019190928637842863
aF0.00025351580660158067
aF6.682938168293816e-05
aF3.704672245467225e-05
aF0.0001586471408647141
aF0.0007990469549046956
aF0.0
aF0.0012312587168758716
aF0.0004715587711142104
aF0.0
aF0.0
aF0.00030799628079962807
aF0.0016323802882380286
aF0.0001900278940027894
aF0.001238522780102278
aF0.0017674918642491865
aF0.0
aF0.0
aF0.0
aF0.0007805235936773594
aF0.0
aF0.002512784751278475
aF0.00033618084611808466
aF0.0027894244924841164
aF0.0
aF0.0003414109716410972
aF0.0009871135518363552
aF0.004706967689446769
aF0.00011186657368665736
aF0.0008021947156361383
aF0.00016779986052998605
aF0.0009880578800557879
aF0.0
aF0.0004518247326824732
aF0.0
aF0.0
aF0.0
aF0.0005364994963582829
aF0.0014885241637333686
aF0.0010689760853202278
aF0.0016860375019370837
aF0.0
aF0.0015356039411347988
aF0.0
aF0.0008105241748024174
aF0.0011233268441035178
aF0.0014058141562064154
aF0.00041841004184100427
aF0.0007436896045028891
aF0.001361185135374466
aF0.000490490303513316
aF0.0
aF0.00040932996280799625
aF0.0002004881450488145
aF0.0003180206880520688
aF0.0007786193713887229
aF0.00033046644971331164
aF0.0005579008102543668
aF0.0013034842598127116
aF0.0
aF0.0018930148768014877
aF0.0015439039981403999
aF0.000673354447543778
aF6.828219432821942e-05
aF0.0005575168526266853
aF6.537656903765688e-05
aF0.0
aF0.0
aF0.0
aF0.0002838795908879591
aF0.0
aa.