(lp0
(lp1
F0.11594202898550725
aF0.07246376811594203
aF0.08695652173913043
aF0.2608695652173913
aF0.2608695652173913
aF0.2463768115942029
aF0.2608695652173913
aF0.043478260869565216
aF0.14492753623188406
aF0.028985507246376812
aF0.13043478260869565
aF0.15942028985507248
aF0.14492753623188406
aF0.11594202898550725
aF0.2028985507246377
aF0.2028985507246377
aF0.10144927536231885
aF0.11594202898550725
aF0.17391304347826086
aF0.13043478260869565
aF0.2028985507246377
aF0.14492753623188406
aF0.08695652173913043
aF0.057971014492753624
aF0.11594202898550725
aF0.10144927536231885
aF0.2608695652173913
aF0.3333333333333333
aF0.043478260869565216
aF0.14492753623188406
aF0.17391304347826086
aF0.17391304347826086
aF0.21739130434782608
aF0.18840579710144928
aF0.15942028985507248
aF0.15942028985507248
aF0.2318840579710145
aF0.13043478260869565
aF0.18840579710144928
aF0.2028985507246377
aF0.13043478260869565
aF0.14492753623188406
aF0.18840579710144928
aF0.17391304347826086
aF0.18840579710144928
aF0.31884057971014496
aF0.028985507246376812
aF0.14492753623188406
aF0.11594202898550725
aF0.14492753623188406
aF0.07246376811594203
aF0.08695652173913043
aF0.15942028985507248
aF0.2028985507246377
aF0.11594202898550725
aF0.21739130434782608
aF0.10144927536231885
aF0.13043478260869565
aF0.13043478260869565
aF0.043478260869565216
aF0.11594202898550725
aF0.15942028985507248
aF0.2318840579710145
aF0.11594202898550725
aF0.11594202898550725
aF0.14492753623188406
aF0.21739130434782608
aF0.2028985507246377
aF0.057971014492753624
aF0.08695652173913043
aa(lp2
F0.02491263784001702
aF0.0028187246016025125
aF0.005648534117204194
aF0.08132322894723122
aF0.07907427516892214
aF0.03690903701370435
aF0.04542310864732565
aF0.0
aF0.054649275113418966
aF0.0
aF0.0033246664270355207
aF0.023313915301116366
aF0.02179296738120267
aF0.02109123293586209
aF0.14403612827581955
aF0.08969902959484718
aF0.019596415845911062
aF0.0717704579700593
aF0.06491321553914095
aF0.0485381759585892
aF0.13911633734635437
aF0.09290695568430345
aF0.013212092208255886
aF5.328218243819267e-05
aF0.022380310747391656
aF0.0314989494497167
aF0.11387446796940165
aF0.0387886344377236
aF0.07293183277838006
aF0.017722536296705095
aF0.06883669435725964
aF0.06261544352255698
aF0.05498936346141194
aF0.017408484629467452
aF0.01232339165523309
aF0.011127911647412928
aF0.2347394032365933
aF0.03849881410623098
aF0.058100571890528536
aF0.08394424023498544
aF0.020527087646652856
aF0.01850931375387897
aF0.0043992974992548735
aF0.05694137096524139
aF0.00524157198213262
aF0.10004963985900178
aF0.0
aF0.005343775884057212
aF0.025253422258963598
aF0.031896455585713905
aF0.0003051462130746018
aF0.008514090382163698
aF0.04458328566384833
aF0.08550784824210016
aF0.021837180927121252
aF0.08347671726519261
aF0.19447551635318044
aF0.0071456546200791725
aF0.015679045908972546
aF0.0005890641280666855
aF0.023316721286670145
aF0.018054453066801996
aF0.026267902672515015
aF0.0004388821844064811
aF0.07697494528536727
aF0.00016441359152356597
aF0.015743667523853287
aF0.0026781264531971225
aF0.0
aF0.00737247413238462
aa(lp3
F0.003871240651331833
aF0.003502075973252161
aF0.003601999488990729
aF0.02053256565155092
aF0.02286456475023122
aF0.01833839281773726
aF0.024080294863631904
aF0.002142857142857143
aF0.006554780787938676
aF0.002142857142857143
aF0.005712553401468222
aF0.006379658116104038
aF0.00937912163231807
aF0.008041630046643692
aF0.01081358455204963
aF0.016492571479683072
aF0.006151146931573928
aF0.005009071596782447
aF0.007913669443166089
aF0.005664391922985595
aF0.014370828903714014
aF0.008324217861923002
aF0.003815449311189067
aF0.0031058150968204363
aF0.011586820766468333
aF0.006730961128775111
aF0.021198325128761252
aF0.06615657232760772
aF0.0033342643616211688
aF0.011737847377165957
aF0.014081759762404925
aF0.012653636154910679
aF0.017493680525841587
aF0.016767391557398585
aF0.013655672179006963
aF0.021148562103638194
aF0.021384775217623192
aF0.006556671599930951
aF0.017174141243988538
aF0.005485556222947795
aF0.006726360916022971
aF0.018016726534196992
aF0.047969830001272966
aF0.020562285242765956
aF0.05030967290436415
aF0.06399486174491109
aF0.002142857142857143
aF0.002532571635655802
aF0.010391492689279459
aF0.0036678031545753437
aF0.0044440925227074365
aF0.007684739222229746
aF0.009075430826937247
aF0.011547161298032354
aF0.008636957794547085
aF0.015653262648831174
aF0.007007958343169383
aF0.00543384383738971
aF0.004204903876260749
aF0.004233444575362168
aF0.00983723494996811
aF0.012717155518422214
aF0.015239533920809976
aF0.003944599437330269
aF0.009452491189555585
aF0.03287476366991231
aF0.054196037424292604
aF0.05267308304841811
aF0.007826108510498883
aF0.0110507581945316
aa(lp4
F0.16546762589928057
aF0.15753424657534246
aF0.14285714285714285
aF0.2911392405063291
aF0.2923728813559322
aF0.28512396694214875
aF0.33014354066985646
aF0.0
aF0.25
aF0.0
aF0.23469387755102042
aF0.23076923076923078
aF0.2490974729241877
aF0.2633587786259542
aF0.2804878048780488
aF0.2936170212765957
aF0.2593984962406015
aF0.21835443037974683
aF0.22044728434504793
aF0.19327731092436976
aF0.26037735849056604
aF0.24731182795698925
aF0.18157894736842106
aF0.1623529411764706
aF0.24381625441696114
aF0.2509090909090909
aF0.30666666666666664
aF0.4791666666666667
aF0.23232323232323232
aF0.2574626865671642
aF0.25842696629213485
aF0.3209302325581395
aF0.32242990654205606
aF0.32242990654205606
aF0.25
aF0.3709677419354839
aF0.39655172413793105
aF0.2633587786259542
aF0.25555555555555554
aF0.26848249027237353
aF0.27380952380952384
aF0.3108108108108108
aF0.39204545454545453
aF0.3165137614678899
aF0.3812154696132597
aF0.42592592592592593
aF0.0
aF0.1571753986332574
aF0.2827868852459016
aF0.18598382749326145
aF0.17692307692307693
aF0.26037735849056604
aF0.22697368421052633
aF0.21296296296296297
aF0.27710843373493976
aF0.3
aF0.2974137931034483
aF0.17647058823529413
aF0.17647058823529413
aF0.21630094043887146
aF0.2749003984063745
aF0.26848249027237353
aF0.2923728813559322
aF0.2123076923076923
aF0.31363636363636366
aF0.3080357142857143
aF0.3484848484848485
aF0.34673366834170855
aF0.2536764705882353
aF0.3039647577092511
aa(lp5
F1.140911931332176e-06
aF9.317237998263794e-07
aF2.0046228602540828e-07
aF0.00016622631465437407
aF0.00017784452496971402
aF0.000513913249008928
aF0.0008330586786951392
aF2.059551857289708e-64
aF5.50340282862181e-05
aF2.059551857289708e-64
aF7.885433315813434e-05
aF9.936027501402894e-05
aF0.00014193138382758759
aF0.00026455691495401413
aF0.00023029733176719447
aF0.0003697857919937364
aF0.00012554317917533225
aF1.7455345195070578e-05
aF1.3278129015305233e-05
aF6.304322274237664e-06
aF8.64699279297157e-05
aF4.613151863438545e-05
aF4.16476898258857e-06
aF1.1056214419681748e-06
aF5.539604991424775e-05
aF6.463637559605326e-05
aF0.0004492791413500819
aF0.37793001515087465
aF0.0006747507793970075
aF0.0001264124904180261
aF0.00014685225815663972
aF0.0012926659142849467
aF0.000990130888794395
aF0.000990130888794395
aF0.0001463063867980318
aF0.11376154586402369
aF0.02152259873377128
aF0.00040248860196077994
aF0.00010077191602256462
aF0.0008989122470136779
aF0.0010766328282764764
aF0.097287247623196
aF0.3398394404461013
aF0.0482097785303118
aF0.3819505812721441
aF0.41732771760194326
aF2.059551857289708e-64
aF1.785706837650007e-06
aF0.0005075460777317239
aF1.0286520582796144e-05
aF7.420965117954524e-06
aF0.0003442136574385707
aF5.7494650951036233e-05
aF3.330620902411137e-05
aF0.0010186542946115642
aF0.0004888311572835808
aF0.003899944186188808
aF7.156735370885456e-06
aF7.110822893940504e-06
aF8.925762174871851e-05
aF0.0005131041961695098
aF0.00041143579376984654
aF0.0005795366342718544
aF7.190609210027963e-05
aF0.0721971273412167
aF0.28653076869321087
aF0.3994993103456409
aF0.38531967542398554
aF0.021014808501983603
aF0.02418925170789475
aa(lp6
F15.195057720057706
aF14.186724386724373
aF12.82002164502164
aF29.997619047619036
aF30.497619047619033
aF28.54761904761904
aF32.507142857142846
aI0
aF22.07380952380952
aI0
aF19.807142857142846
aF19.44047619047618
aF22.357142857142847
aF22.61666666666666
aF24.45
aF27.366666666666667
aF22.807142857142846
aF19.544047619047614
aF21.660714285714278
aF18.267460317460316
aF25.030952380952368
aF23.21428571428571
aF15.946031746031727
aF13.895057720057709
aF23.960714285714268
aF22.240476190476187
aF31.080952380952375
aF39.666666666666664
aF17.742857142857137
aF23.690476190476183
aF24.190476190476186
aF27.066666666666656
aF28.449999999999996
aF28.449999999999996
aF22.890476190476182
aF30.783333333333328
aF32.86666666666666
aF21.799999999999994
aF26.110714285714273
aF21.066666666666663
aF22.83333333333332
aF25.183333333333323
aF31.583333333333325
aF26.416666666666654
aF30.916666666666657
aF35.499999999999986
aI0
aF12.75912698412698
aF23.783333333333324
aF15.910714285714278
aF16.83315295815295
aF21.63333333333333
aF20.880952380952376
aF22.28174603174603
aF22.499999999999993
aF27.27380952380952
aF23.416666666666657
aF16.333152958152954
aF16.333152958152954
aF16.94047619047619
aF23.08333333333333
aF24.79761904761904
aF27.10714285714285
aF17.677380952380954
aF24.266666666666662
aF25.13333333333333
aF29.033333333333324
aF28.866666666666656
aF20.033333333333328
aF24.166666666666657
aa(lp7
F0.02590535308326229
aF0.0028838241214360137
aF0.0050884484228474
aF0.07362277892235801
aF0.07707990452622272
aF0.03548280698789544
aF0.04387881460957978
aF0.0
aF0.05264220422468502
aF0.0
aF0.004301056171260775
aF0.024495299327460456
aF0.021804697120394047
aF0.02078079118120678
aF0.13879238893625084
aF0.09784611262525796
aF0.021569663493416692
aF0.06713554987212275
aF0.07081633730384264
aF0.050053652197594015
aF0.12940367370780842
aF0.09836611174260368
aF0.012246021597044614
aF5.328218243819267e-05
aF0.028613444673360487
aF0.028028204035237276
aF0.1107222561290656
aF0.036958847548681305
aF0.07026587809036658
aF0.019076205361371598
aF0.07560425941713235
aF0.06392514845200267
aF0.05458655986549208
aF0.017214975499422434
aF0.012078577405197185
aF0.01207527257719074
aF0.2353244031472932
aF0.03900220771224607
aF0.04771754917748093
aF0.09062235126813135
aF0.020277422563228183
aF0.01861536445935423
aF0.004757810568232562
aF0.05745629938404875
aF0.005824884301546702
aF0.10030993238314209
aF0.0
aF0.0072090792838874675
aF0.02465163409456888
aF0.035475869091597986
aF0.000263450790944397
aF0.008746122241166996
aF0.04741315004262574
aF0.0847542620107624
aF0.022430614757980475
aF0.08168054066524867
aF0.1962754408966046
aF0.0069930891035963495
aF0.016846346026333236
aF0.0005461423699914749
aF0.02304143577720944
aF0.01805795459927493
aF0.023629530049100605
aF0.000530157715260017
aF0.07761319503646869
aF0.0001796370722201924
aF0.014729225023342674
aF0.0029411764705882357
aF0.0
aF0.007877136361791093
aa.