(lp0
(lp1
F0.10648148148148148
aF0.19907407407407407
aF0.19444444444444442
aF0.125
aF0.125
aF0.07870370370370369
aF0.10185185185185185
aF0.10648148148148148
aF0.07407407407407407
aF0.15277777777777776
aF0.08333333333333333
aF0.09259259259259259
aF0.14351851851851852
aF0.15277777777777776
aF0.06944444444444445
aF0.08796296296296297
aF0.19907407407407407
aF0.06944444444444445
aF0.14351851851851852
aF0.08333333333333333
aF0.08796296296296297
aF0.09722222222222221
aF0.12037037037037036
aF0.15277777777777776
aF0.11574074074074073
aF0.09722222222222221
aF0.20833333333333331
aF0.11574074074074073
aF0.09259259259259259
aF0.041666666666666664
aF0.06481481481481481
aF0.08796296296296297
aF0.07870370370370369
aF0.06481481481481481
aF0.08333333333333333
aF0.16666666666666666
aF0.046296296296296294
aF0.08796296296296297
aF0.05555555555555555
aF0.09722222222222221
aF0.2222222222222222
aF0.06944444444444445
aF0.08796296296296297
aF0.10185185185185185
aF0.13425925925925924
aF0.15740740740740738
aF0.15740740740740738
aF0.10185185185185185
aF0.06944444444444445
aF0.15740740740740738
aF0.1388888888888889
aF0.17129629629629628
aF0.13425925925925924
aF0.17592592592592593
aF0.125
aF0.09259259259259259
aF0.1388888888888889
aF0.09722222222222221
aF0.13425925925925924
aF0.08333333333333333
aF0.16666666666666666
aF0.125
aF0.13425925925925924
aF0.11574074074074073
aF0.19444444444444442
aF0.11574074074074073
aF0.08333333333333333
aF0.06944444444444445
aF0.15740740740740738
aF0.37037037037037035
aF0.2037037037037037
aF0.12037037037037036
aF0.2037037037037037
aF0.13425925925925924
aF0.09259259259259259
aF0.12962962962962962
aF0.09259259259259259
aF0.12962962962962962
aF0.10185185185185185
aF0.10648148148148148
aF0.12962962962962962
aF0.10648148148148148
aF0.1388888888888889
aF0.07407407407407407
aF0.18518518518518517
aF0.08796296296296297
aF0.15277777777777776
aF0.12962962962962962
aF0.07870370370370369
aF0.046296296296296294
aF0.018518518518518517
aF0.15740740740740738
aF0.10648148148148148
aF0.11574074074074073
aF0.09722222222222221
aF0.11574074074074073
aF0.09259259259259259
aF0.15277777777777776
aF0.05092592592592592
aF0.12037037037037036
aF0.05092592592592592
aF0.09259259259259259
aF0.037037037037037035
aF0.037037037037037035
aF0.10648148148148148
aF0.09722222222222221
aF0.1111111111111111
aF0.15277777777777776
aF0.07407407407407407
aF0.09722222222222221
aF0.11574074074074073
aF0.1388888888888889
aF0.21296296296296297
aF0.046296296296296294
aF0.16666666666666666
aF0.12037037037037036
aF0.06944444444444445
aF0.05555555555555555
aF0.05092592592592592
aF0.21296296296296297
aF0.18055555555555555
aF0.07870370370370369
aF0.06481481481481481
aF0.09722222222222221
aF0.15277777777777776
aF0.18055555555555555
aF0.1111111111111111
aF0.1898148148148148
aF0.1111111111111111
aF0.10648148148148148
aF0.16203703703703703
aF0.046296296296296294
aF0.12037037037037036
aF0.10648148148148148
aF0.1388888888888889
aF0.05555555555555555
aF0.08333333333333333
aF0.15740740740740738
aF0.19444444444444442
aF0.07870370370370369
aF0.15277777777777776
aF0.06944444444444445
aF0.07870370370370369
aF0.2222222222222222
aF0.17129629629629628
aF0.10648148148148148
aF0.1388888888888889
aF0.12962962962962962
aF0.10185185185185185
aF0.16666666666666666
aF0.17592592592592593
aF0.08333333333333333
aF0.06944444444444445
aF0.09722222222222221
aF0.032407407407407406
aF0.19444444444444442
aF0.08796296296296297
aF0.09259259259259259
aF0.023148148148148147
aF0.06481481481481481
aF0.1388888888888889
aF0.09259259259259259
aF0.15277777777777776
aF0.09722222222222221
aF0.16203703703703703
aF0.19444444444444442
aF0.1388888888888889
aF0.15277777777777776
aF0.2638888888888889
aF0.14351851851851852
aF0.07407407407407407
aF0.16203703703703703
aF0.12037037037037036
aF0.1388888888888889
aF0.09259259259259259
aF0.16203703703703703
aF0.06481481481481481
aF0.12037037037037036
aF0.15277777777777776
aF0.1111111111111111
aF0.12962962962962962
aF0.09722222222222221
aF0.11574074074074073
aF0.3333333333333333
aF0.18518518518518517
aF0.12962962962962962
aF0.1111111111111111
aF0.10648148148148148
aF0.023148148148148147
aF0.08333333333333333
aF0.032407407407407406
aF0.05092592592592592
aF0.1111111111111111
aF0.10185185185185185
aF0.17129629629629628
aF0.08333333333333333
aF0.009259259259259259
aF0.037037037037037035
aF0.06481481481481481
aF0.023148148148148147
aF0.09722222222222221
aF0.08796296296296297
aF0.05092592592592592
aF0.06018518518518518
aF0.14351851851851852
aF0.10185185185185185
aF0.09722222222222221
aF0.05092592592592592
aF0.10648148148148148
aF0.06018518518518518
aF0.06018518518518518
aF0.10185185185185185
aF0.06944444444444445
aF0.10185185185185185
aF0.06944444444444445
aF0.06944444444444445
aF0.046296296296296294
aa(lp2
F0.004636030403864208
aF0.02217534137239313
aF0.025561156977727723
aF0.008638840313773207
aF0.006447464943939882
aF0.0076780427600268404
aF0.003243474594077203
aF0.005579303218925164
aF0.002280754070263256
aF0.014232053368814397
aF0.0028069370706012083
aF0.004222798881000561
aF0.012152888036936465
aF0.01430557122961762
aF0.005124360083882982
aF0.00482984137325359
aF0.03549312384234316
aF0.0030866102146886324
aF0.011628924805070386
aF0.00426387894037048
aF0.004951835936822134
aF0.004249132054545039
aF0.003620883616415048
aF0.015943831863780584
aF0.011123541271149198
aF0.006110945147721946
aF0.027149305601897336
aF0.013329734377903994
aF0.009088084943992096
aF0.0009022494219698934
aF0.005940954394991483
aF0.004003058034333286
aF0.005456727109862322
aF0.0011584444735285397
aF0.007304149440239232
aF0.030394204206260156
aF0.0011900143874502723
aF0.004389857738469256
aF0.0041168986768500455
aF0.00814539404937015
aF0.019639413605962264
aF0.000974135850174315
aF0.0023403890959090255
aF0.0042293060850221095
aF0.014838575971933934
aF0.01754676609696198
aF0.008696278238199642
aF0.011510475130435651
aF0.002724574604137629
aF0.01511138004833171
aF0.008960950901945562
aF0.023370227017936895
aF0.009942640943869804
aF0.018919090294627242
aF0.0073563901381974274
aF0.003574362579626081
aF0.012456024083889877
aF0.0019668796081197806
aF0.008096789499519929
aF0.0018577091781032586
aF0.008556732680740881
aF0.0026769969805744945
aF0.009789434803334962
aF0.005779938718494113
aF0.016532821576299577
aF0.009941601490254642
aF0.004201937660398041
aF0.004312449304586153
aF0.0201192338575871
aF0.07422590528432259
aF0.0298511614259532
aF0.007253014578533183
aF0.021778796255040363
aF0.01453932334571885
aF0.0019681073544533414
aF0.00995801473796664
aF0.003012278699770574
aF0.004241753422754892
aF0.0024694508639364777
aF0.016235221582672005
aF0.004922720975266584
aF0.0037258456424939766
aF0.011813207573443502
aF0.002720373062182009
aF0.017073200004402822
aF0.0022410954754361902
aF0.012211530251179572
aF0.007347921754270145
aF0.0021220281339138385
aF0.0023158155992534664
aF0.00047776084965939485
aF0.008079380594223156
aF0.003330569861151863
aF0.00445187998722138
aF0.010443357634494027
aF0.005651575678529047
aF0.0051398787297687295
aF0.022904054938090786
aF0.00041271175718143773
aF0.009286369483296385
aF0.00022558373164392018
aF0.0058971667795903624
aF0.0005062112272939306
aF0.0007616378675818386
aF0.003478231472585258
aF0.0027803830318744943
aF0.009420864559888045
aF0.01524196408302467
aF0.002025124230526069
aF0.0008541291310893808
aF0.006425668823694071
aF0.00797537947888006
aF0.035380564419383115
aF0.00038946393224844754
aF0.017969666844766686
aF0.003537261195671659
aF0.004252561923483902
aF0.0005703104633282361
aF0.0005679172071158773
aF0.026635509062699094
aF0.021652622659930766
aF0.004897989623738682
aF0.0033468427741177504
aF0.003114974652862463
aF0.009054853797652092
aF0.01959638898721101
aF0.008357318747317224
aF0.022873235455864362
aF0.00888752314845084
aF0.004043642630625291
aF0.010170445951507416
aF0.0009653839775071374
aF0.01558104342750782
aF0.005261259778320037
aF0.00799975727103541
aF0.0019957018781628397
aF0.015983966154721866
aF0.009921508072806808
aF0.010477727841660327
aF0.0036284962061081797
aF0.011690293814063914
aF0.0011610641332288126
aF0.0012797889568341514
aF0.012975078940811837
aF0.009008737706050225
aF0.0030410284671457534
aF0.015311892412136995
aF0.011225761393485122
aF0.006435759899466346
aF0.013246324806432952
aF0.011058520144945523
aF0.00024189320388683395
aF0.0016535376392754998
aF0.002630425678657332
aF0.001267761679548284
aF0.005898052597260321
aF0.0066217242265805745
aF0.01739717609456799
aF3.3633470277217845e-05
aF0.0016450695802857442
aF0.007675281522859541
aF0.0038712808671860833
aF0.007823587368394435
aF0.0036237422906597724
aF0.011721830961341995
aF0.010269101267493202
aF0.00534331332913689
aF0.0069203696831356305
aF0.03680083182722905
aF0.006410259134524374
aF0.012749077150252508
aF0.008961276250366024
aF0.010608211510447475
aF0.004477489681095649
aF0.0015173071472747966
aF0.006967136422710316
aF0.0009906810209622794
aF0.0037526688279362536
aF0.008778522940970278
aF0.0003712449487117498
aF0.00108425405698147
aF0.0007737719551476616
aF0.0008245086322508862
aF0.04293348021862643
aF0.005939376585228853
aF0.003838533573421431
aF0.002646013232477987
aF0.0043191338619348015
aF0.0
aF0.0010506941746574183
aF0.0
aF0.002178408840490133
aF0.003632192241907968
aF0.004821334318016348
aF0.010354749329708831
aF0.011841139027214787
aF0.0
aF0.00010705056384405444
aF0.0021317638139437506
aF0.00017832522991958726
aF0.012704079189035775
aF0.006837220553979634
aF0.0075237454937960736
aF0.0035427259649457375
aF0.01144769081034432
aF0.0031434672385881007
aF0.002704774690111125
aF0.0051378053446652595
aF0.0012561050328785302
aF0.0003964318650127426
aF0.0022099705818550875
aF0.0035469674027662746
aF0.002933438124619351
aF0.0008674232660992676
aF0.00044596825306538975
aF0.0017889920626246358
aF0.0003585333574946963
aa(lp3
F0.005419922505974066
aF0.0075982035463799495
aF0.006210529922016618
aF0.004070688266582843
aF0.003178507293600922
aF0.003862818587390142
aF0.005213517937529084
aF0.006218938017486738
aF0.0036893752572053663
aF0.005941138202188671
aF0.0026435659032887924
aF0.00344597770011527
aF0.0029789233425878935
aF0.005437903502006525
aF0.004195886117928638
aF0.005150373697395881
aF0.008400262539165168
aF0.0047725044993128215
aF0.002489027860118692
aF0.004611519299097156
aF0.003515643330303335
aF0.0030094131188962954
aF0.0044227626932388225
aF0.005408411607591165
aF0.0021192590415576667
aF0.0018308732147030464
aF0.004583250217347531
aF0.006612214986694377
aF0.001979418865181379
aF0.0010898270123104543
aF0.0030093284499814466
aF0.005012003638277618
aF0.00462358134058053
aF0.004179245312065083
aF0.0033206180729292963
aF0.005555864610276725
aF0.0015414706548936001
aF0.0037998774955943057
aF0.0038323068967071427
aF0.0027140189656663636
aF0.00903546862795441
aF0.004849642298128325
aF0.0030176361291127793
aF0.003242339552111571
aF0.006239499478909764
aF0.007240354585708691
aF0.008739897136354612
aF0.00613433387638383
aF0.003980167365448818
aF0.00869103879010905
aF0.006251482900280619
aF0.006092785657816706
aF0.005327877951973764
aF0.008648643893817658
aF0.005294329616009899
aF0.004434453175926218
aF0.0043490760507225905
aF0.004173709800711724
aF0.004534817123969466
aF0.002719949152975025
aF0.005212635083859768
aF0.006357471480417498
aF0.005644719592545019
aF0.0034922423443996833
aF0.006054393252319575
aF0.006096107164882887
aF0.003983798962359385
aF0.003158404611231105
aF0.008811430143799622
aF0.008001226952226187
aF0.010423508582099644
aF0.004986617409683269
aF0.008518326048923672
aF0.005781331412196512
aF0.0033497640318801646
aF0.00420124247875089
aF0.003454166731342036
aF0.005707195154016113
aF0.004662566261570672
aF0.0037774708900889273
aF0.0058555900069978475
aF0.004826737407313001
aF0.004747252192493846
aF0.0025972845376588272
aF0.009301631680085161
aF0.0030646402006386177
aF0.005683923382969619
aF0.00415914172042066
aF0.004442648335627071
aF0.0017439694071659329
aF0.0012687202789002378
aF0.008313760750107512
aF0.005389897565091048
aF0.006510753124908765
aF0.005361279786825551
aF0.004082023157650438
aF0.0015601181873281821
aF0.0062004467542547
aF0.0012700840826804162
aF0.007339138747465598
aF0.004130491095864355
aF0.004841830712098543
aF0.0025967141557471387
aF0.0016744014824321787
aF0.002597256400238095
aF0.0017605765538316214
aF0.005915806816960228
aF0.0038670636596203367
aF0.002926145039430864
aF0.0039255129263181445
aF0.004572665731161471
aF0.0052499863841918
aF0.003973924064786299
aF0.0023580176798531217
aF0.00903778164565186
aF0.003747673730877682
aF0.0034967622049734476
aF0.0019438909828695852
aF0.0013959477435681895
aF0.004204872102923645
aF0.006769052988523777
aF0.0011780978521835155
aF0.00240909344587531
aF0.002105529317291664
aF0.008473256183225754
aF0.00849509829648737
aF0.005053936833928684
aF0.003900841912645356
aF0.0043588134455950795
aF0.002809929417645088
aF0.0046084204357636546
aF0.0015198536796300823
aF0.0038662591642057097
aF0.005706894232626004
aF0.0028378789767296952
aF0.0015145358248893016
aF0.0028529006563625964
aF0.007215187043454142
aF0.008527266313738863
aF0.002887646657718005
aF0.005516416966418628
aF0.0048991038883637586
aF0.005365915731856438
aF0.010623947843228402
aF0.006496078374069154
aF0.002871029152301143
aF0.004594163330809033
aF0.0037267330858323754
aF0.004356632429554622
aF0.008492092817303993
aF0.008855053248427034
aF0.0034706542302537077
aF0.002955393405821816
aF0.005154009426277643
aF0.00155096163571226
aF0.011552349957999487
aF0.004764095668042424
aF0.0035130739092034137
aF0.001808779769706431
aF0.004811258742165306
aF0.005002532440286623
aF0.0046110718403312295
aF0.006202519028818432
aF0.00446721765368329
aF0.007342099637289977
aF0.00820649541919519
aF0.0044554104072819485
aF0.0069785013363703055
aF0.007341404910217434
aF0.007172263411336881
aF0.0020230137197847146
aF0.006848001107794381
aF0.004332958151644192
aF0.005969028178054624
aF0.00477480393216925
aF0.006327558103808151
aF0.0028618963867158755
aF0.006367143901266366
aF0.003553678191976282
aF0.0045148784205561185
aF0.00560988273391032
aF0.0033709528887156215
aF0.0027333122281918204
aF0.010342983912884268
aF0.009640856107951852
aF0.0032063712295516927
aF0.002301730519890803
aF0.004857410181631444
aF0.0018605345758605381
aF0.005356522227755224
aF0.0006985325223773901
aF0.001101462073011367
aF0.008686991253238078
aF0.006672565361826
aF0.007235681640752858
aF0.004075755749916902
aF0.0006985325223773901
aF0.001934987795805478
aF0.0015021525441554474
aF0.0008304185336431322
aF0.0021719458261338035
aF0.00581021835358835
aF0.0018340854201398093
aF0.002907923426759849
aF0.005525080720938796
aF0.004011574465660302
aF0.003688129381326074
aF0.0035864820169866076
aF0.00579608837470817
aF0.003655029631359205
aF0.0009212586662675727
aF0.003950909617088608
aF0.0014595276605929887
aF0.004153022976230181
aF0.0021049420562889365
aF0.002516559828912626
aF0.001071414807955254
aa(lp4
F0.37283036520841395
aF0.3970401291829863
aF0.3970401291829863
aF0.3525611690768198
aF0.3413151987713391
aF0.32375889505238975
aF0.3721819645732689
aF0.38215112433862436
aF0.33127651645453504
aF0.38215112433862436
aF0.3435066286189882
aF0.3435066286189882
aF0.3566743827160494
aF0.40454561366659664
aF0.3543123007113073
aF0.37610655470936666
aF0.39411534001773413
aF0.3696107592912429
aF0.36644628361237946
aF0.3869884803429107
aF0.37610655470936666
aF0.3525611690768198
aF0.33754673443159244
aF0.4163514195128981
aF0.2943667532732182
aF0.34295613722697055
aF0.3696107592912429
aF0.3451687574671446
aF0.3252349994371271
aF0.28195603376762796
aF0.3418604307182582
aF0.36519561370243964
aF0.3184592702821869
aF0.32375889505238975
aF0.32474147136514364
aF0.3948424900915676
aF0.2668386903112589
aF0.3658198797087686
aF0.27227052115728956
aF0.3457263806617603
aF0.43320775228669967
aF0.316574895901819
aF0.34077170323189426
aF0.3774332092233327
aF0.4053117985409652
aF0.40997055484603373
aF0.4358546428302029
aF0.40454561366659664
aF0.36271971123666036
aF0.42126895596383784
aF0.42293405065144196
aF0.4254565201384287
aF0.40762786596119926
aF0.4703398453398453
aF0.3919498711165378
aF0.37478919374716224
aF0.37676871413667185
aF0.36088470426581726
aF0.3702502242727156
aF0.3418604307182582
aF0.3919498711165378
aF0.40997055484603373
aF0.40150962407059965
aF0.3543123007113073
aF0.37876925598164535
aF0.392669045191981
aF0.3835208416301606
aF0.3590681705195128
aF0.4271549493605382
aF0.4495895580454404
aF0.43059281615619643
aF0.3890993265993266
aF0.4439930075303519
aF0.375446718648473
aF0.3184592702821869
aF0.3514033327251718
aF0.339151552503375
aF0.36457347466717144
aF0.35846671629753707
aF0.3578672736281432
aF0.3807911559246079
aF0.3696107592912429
aF0.40302190137406707
aF0.3267246253887475
aF0.4288669932457507
aF0.3396898883009994
aF0.3658198797087686
aF0.3855939272605939
aF0.36027715425863577
aF0.2768494561832207
aF0.28686947671532126
aF0.4053117985409652
aF0.3708919057705886
aF0.3912333265623942
aF0.37810005234916894
aF0.3519812987329435
aF0.30615826842579347
aF0.43320775228669967
aF0.3031227048578323
aF0.3919498711165378
aF0.3292378917378917
aF0.3302540580704161
aF0.33861492030004686
aF0.32278224680185463
aF0.32974519203332764
aF0.31751428728431697
aF0.36644628361237946
aF0.3435066286189882
aF0.3097027925175537
aF0.3079203304023448
aF0.3578672736281432
aF0.37876925598164535
aF0.3566743827160494
aF0.3468470496428357
aF0.4449160699160699
aF0.36088470426581726
aF0.34077170323189426
aF0.32573002987767063
aF0.3359570323856038
aF0.38420938892213574
aF0.41879575269986224
aF0.30703677134810564
aF0.3468470496428357
aF0.31798607671564577
aF0.4403387440938881
aF0.44124665903016413
aF0.39851886336988757
aF0.3905193971343606
aF0.3502530763169061
aF0.30615826842579347
aF0.3876895464304885
aF0.3035526661413186
aF0.403782320055905
aF0.3596716464363523
aF0.30880898936454493
aF0.28686947671532126
aF0.3596716464363523
aF0.41797779224537035
aF0.40150962407059965
aF0.3485417420678007
aF0.40226434140907824
aF0.3919498711165378
aF0.3741339678839679
aF0.4340864698369769
aF0.39851886336988757
aF0.35726983243677735
aF0.40302190137406707
aF0.3883931572225583
aF0.40226434140907824
aF0.4155429701546206
aF0.3963048696844993
aF0.32772531336849864
aF0.3232698332773862
aF0.38215112433862436
aF0.3156410466513711
aF0.461216874201788
aF0.3905193971343606
aF0.3485417420678007
aF0.3208465211838525
aF0.34797500752785304
aF0.403782320055905
aF0.39777812198815915
aF0.4007577333888195
aF0.36027715425863577
aF0.4155429701546206
aF0.42293405065144196
aF0.39851886336988757
aF0.38215112433862436
aF0.44864702228433884
aF0.40226434140907824
aF0.3282279595546467
aF0.4171630207205256
aF0.35846671629753707
aF0.36271971123666036
aF0.37610655470936666
aF0.375446718648473
aF0.3370151647710703
aF0.403782320055905
aF0.3715358153292181
aF0.3359570323856038
aF0.3807911559246079
aF0.36457347466717144
aF0.32278224680185463
aF0.41961692084241103
aF0.4220998612024253
aF0.36210597230055774
aF0.3359570323856038
aF0.3658198797087686
aF0.3380281690140845
aF0.375446718648473
aF0.0
aF0.2939624033374033
aF0.4053117985409652
aF0.3905193971343606
aF0.3855939272605939
aF0.392669045191981
aF0.0
aF0.3119601015009178
aF0.27720806946843213
aF0.2544644823182279
aF0.3413151987713391
aF0.38420938892213574
aF0.29155944091230196
aF0.3715358153292181
aF0.3396898883009994
aF0.3566743827160494
aF0.36027715425863577
aF0.32424943883277213
aF0.35726983243677735
aF0.3232698332773862
aF0.22574328020003126
aF0.3696107592912429
aF0.3252349994371271
aF0.3496807673686758
aF0.3715358153292181
aF0.3328221300616324
aF0.2757791618938526
aa(lp5
F0.024096323897643244
aF0.03615782644370926
aF0.03696541175452061
aF0.015469973932558344
aF0.012319377431344921
aF0.00842300099787838
aF0.025459775948749395
aF0.02358973582660688
aF0.010381086792562997
aF0.02865450976387199
aF0.016738176366516932
aF0.013486703744327384
aF0.014963761816824107
aF0.03854954163817857
aF0.019137655435673803
aF0.028294063901103682
aF0.03776235074917019
aF0.016347316631032765
aF0.02015444868113519
aF0.027202567627234685
aF0.02671542807251569
aF0.017658472956467233
aF0.018134550483598785
aF0.0559403360629581
aF0.0030770587486269973
aF0.016725167146723775
aF0.022065874057001438
aF0.01276558179155826
aF0.005330797149366191
aF0.002552488825973124
aF0.009237404879425775
aF0.020101534733322168
aF0.00938387233931007
aF0.010348848128100184
aF0.006734035511262101
aF0.028070923505355994
aF0.0011490674556861838
aF0.0386835498862813
aF0.0029615421608038253
aF0.013885536096381027
aF0.18419480512379177
aF0.008516753006811036
aF0.012892528777659479
aF0.020626948970608867
aF0.03558147648482599
aF0.04917659543827677
aF0.10669159792245153
aF0.04861806835263522
aF0.01577753687176289
aF0.05926573705912543
aF0.06637877936447104
aF0.08433266827480063
aF0.056636286322060664
aF0.1092967996913738
aF0.05775925154706702
aF0.050631230414860805
aF0.04000574805578005
aF0.03546765578755302
aF0.03340706006338665
aF0.020933503276350757
aF0.09084539703535874
aF0.12146553959961419
aF0.07793774260947853
aF0.046487584927372906
aF0.1027814738706638
aF0.07124641352235173
aF0.04429553194953892
aF0.014176030811930179
aF0.06606782254989234
aF0.1303644194039351
aF0.13664997929535777
aF0.05342033559370799
aF0.12534341291898443
aF0.052004990651563957
aF0.028359066717131697
aF0.045031848907167
aF0.029747892253857027
aF0.07576881747476599
aF0.056298886303012274
aF0.04179635460961321
aF0.09502832018019738
aF0.05842220282011281
aF0.07822680840079567
aF0.016533999864745835
aF0.12632550705090448
aF0.03132781394199748
aF0.03251454915696601
aF0.04534683988864785
aF0.027720362068517558
aF0.004318104232986853
aF0.0025356598263225256
aF0.08908449788021934
aF0.04768835031722283
aF0.07922720913892808
aF0.06175751623010152
aF0.03534704271548142
aF0.0034793867682290118
aF0.07552529475470418
aF0.004692072389588459
aF0.03526913862435892
aF0.011056131116288285
aF0.011102527042313673
aF0.011263898308632572
aF0.0070959210131089235
aF0.01184502367838796
aF0.007529830534001211
aF0.017088164603851277
aF0.012906379454934258
aF0.008410179813936262
aF0.01551036841871376
aF0.02889390715982011
aF0.03717056255071904
aF0.015592839107174685
aF0.024243452140211418
aF0.11325615588641491
aF0.05970149611787177
aF0.010744459426928758
aF0.013993086169989573
aF0.015341207986744468
aF0.03981592013551682
aF0.10338950361741948
aF0.005553839525683857
aF0.010729963569339803
aF0.006393897409099196
aF0.12729763374141806
aF0.1750069007646312
aF0.04589340463843137
aF0.0738805147555984
aF0.02060660954953337
aF0.009930688941227003
aF0.05417717802360931
aF0.0036682397996035524
aF0.030786566564067003
aF0.058400834461913645
aF0.017277309196817817
aF0.001704756046980391
aF0.012323741705042813
aF0.09492549899333842
aF0.16702168904837977
aF0.015348675230964288
aF0.0835476400436536
aF0.07429849050499147
aF0.060824700879079506
aF0.21957263024058915
aF0.15400038938359165
aF0.04379085783659027
aF0.0516017748176915
aF0.04354169339861822
aF0.06867769273765315
aF0.15686809170782082
aF0.10974971488513423
aF0.08340607920666579
aF0.022470142555226082
aF0.06554363307848568
aF0.004751865763320912
aF0.22374922053850713
aF0.04624913613062238
aF0.02937369168101275
aF0.006519708472008292
aF0.016510941940573745
aF0.08858814705366365
aF0.06744279980178003
aF0.07667314767871333
aF0.06115790474249489
aF0.1292402512247443
aF0.13638547327392522
aF0.08232106151275226
aF0.08075688193335225
aF0.15304372644191228
aF0.09286773069661305
aF0.004646722940377837
aF0.11497336029107981
aF0.04771367282045321
aF0.07521844698069263
aF0.07451077957663559
aF0.09673434108070306
aF0.020770048302218264
aF0.11779895536227732
aF0.03474774337799814
aF0.10234539244037488
aF0.13413501366695152
aF0.08533886714483342
aF0.06376917057195432
aF0.2020437186493784
aF0.1934297893710101
aF0.05332821963829959
aF0.031047349973772
aF0.055867103710780394
aF0.008203657546590772
aF0.07304368386352869
aF1.09498639200732e-42
aF0.0036068439369225168
aF0.11885122510526663
aF0.06520700421954218
aF0.12950240761775964
aF0.03343570276987265
aF1.09498639200732e-42
aF0.004733688096569234
aF0.0012760298621954165
aF0.0007371376447713662
aF0.010974697059968608
aF0.04256525174346128
aF0.0018930229420946584
aF0.022158452126147626
aF0.03872137574378694
aF0.030610769368227483
aF0.031162909620651665
aF0.011087076788247975
aF0.11399418317891936
aF0.018560465292296116
aF0.00012714605751703792
aF0.06548874414244894
aF0.013436327522325828
aF0.09917072689714254
aF0.05738980573298376
aF0.030773299136017448
aF0.0017301938929680386
aa(lp6
F90.66666666666653
aF98.58333333333317
aF97.33333333333316
aF84.99999999999993
aF81.99999999999997
aF77.86666666666667
aF90.16666666666653
aF92.49999999999987
aF80.11666666666666
aF93.83333333333319
aF82.2666666666666
aF83.58333333333327
aF85.99999999999994
aF97.83333333333314
aF83.83333333333329
aF90.4499999999999
aF97.41666666666656
aF87.83333333333321
aF87.36666666666656
aF91.41666666666654
aF89.36666666666656
aF84.24999999999993
aF82.61666666666659
aF99.91666666666652
aF69.60000000000004
aF80.0833333333333
aF90.33333333333317
aF85.28333333333326
aF76.74999999999996
aF65.31666666666676
aF80.41666666666663
aF88.69999999999992
aF76.76666666666667
aF78.30000000000001
aF77.51666666666667
aF95.49999999999984
aF62.13333333333342
aF87.49999999999991
aF64.3833333333334
aF82.98333333333328
aF106.66666666666661
aF77.40000000000003
aF82.11666666666666
aF90.2499999999999
aF98.91666666666652
aF98.33333333333321
aF105.16666666666654
aF96.83333333333326
aF86.28333333333326
aF102.08333333333312
aF101.49999999999987
aF102.24999999999991
aF97.66666666666654
aF112.41666666666657
aF93.8999999999999
aF89.83333333333324
aF90.66666666666654
aF86.06666666666658
aF90.16666666666652
aF80.41666666666661
aF94.99999999999993
aF99.99999999999997
aF96.66666666666659
aF84.23333333333329
aF91.58333333333329
aF94.74999999999993
aF90.83333333333327
aF84.99999999999993
aF102.66666666666654
aF109.99999999999996
aF104.99999999999997
aF92.16666666666657
aF107.08333333333329
aF91.08333333333317
aF77.08333333333337
aF85.39999999999995
aF82.21666666666667
aF88.83333333333333
aF87.09999999999997
aF85.31666666666662
aF93.25000000000003
aF88.83333333333329
aF96.33333333333324
aF76.85
aF103.66666666666664
aF82.0
aF89.83333333333321
aF91.91666666666657
aF85.74999999999993
aF63.76666666666677
aF65.28333333333342
aF97.91666666666656
aF88.58333333333324
aF94.08333333333326
aF90.83333333333327
aF82.66666666666659
aF72.40000000000005
aF103.91666666666659
aF69.6333333333334
aF94.74999999999987
aF78.11666666666667
aF78.78333333333335
aF78.66666666666661
aF75.0666666666667
aF79.2
aF74.78333333333335
aF89.91666666666659
aF84.36666666666656
aF75.01666666666668
aF74.86666666666669
aF87.06666666666656
aF92.66666666666654
aF86.08333333333321
aF81.0833333333333
aF106.99999999999994
aF86.3333333333333
aF81.48333333333328
aF76.95000000000005
aF78.59999999999997
aF91.58333333333327
aF102.58333333333327
aF71.90000000000006
aF81.44999999999992
aF75.55000000000003
aF105.99999999999991
aF106.08333333333333
aF95.74999999999987
aF92.99999999999991
aF85.64999999999989
aF74.03333333333337
aF91.66666666666659
aF71.9333333333334
aF95.99999999999986
aF88.23333333333335
aF73.48333333333339
aF66.58333333333339
aF84.58333333333327
aF101.58333333333329
aF99.5833333333333
aF82.66666666666659
aF96.41666666666657
aF93.1666666666666
aF89.16666666666661
aF107.24999999999996
aF96.74999999999997
aF84.66666666666664
aF94.91666666666656
aF91.91666666666656
aF95.58333333333326
aF101.4166666666666
aF99.16666666666661
aF78.63333333333333
aF76.73333333333332
aF91.66666666666661
aF73.6166666666667
aF113.3333333333333
aF92.58333333333327
aF82.78333333333335
aF74.43333333333332
aF82.9166666666666
aF96.66666666666663
aF94.24999999999996
aF96.49999999999991
aF86.24999999999999
aF100.5833333333333
aF101.49999999999997
aF94.33333333333326
aF92.58333333333331
aF107.91666666666664
aF97.49999999999991
aF78.03333333333333
aF101.4166666666666
aF85.91666666666661
aF89.94999999999999
aF90.24999999999996
aF91.5
aF78.33333333333329
aF96.66666666666663
aF88.33333333333326
aF81.06666666666666
aF92.33333333333331
aF86.91666666666661
aF76.88333333333333
aF103.9166666666666
aF103.66666666666659
aF85.5666666666666
aF79.48333333333336
aF87.83333333333334
aF78.78333333333335
aF91.16666666666666
aI0
aF67.93333333333337
aF98.06666666666662
aF92.83333333333326
aF95.41666666666669
aF91.83333333333326
aI0
aF73.68333333333334
aF64.51666666666675
aF57.81666666666675
aF80.69999999999995
aF91.41666666666663
aF67.80000000000005
aF86.4166666666666
aF81.90000000000003
aF86.73333333333322
aF86.91666666666657
aF76.30000000000003
aF86.64999999999999
aF76.38333333333335
aF51.03333333333344
aF87.74999999999994
aF75.83333333333334
aF85.38333333333328
aF87.3333333333333
aF78.54999999999998
aF63.00000000000007
aa(lp7
F0.004630211563791694
aF0.02115338876258694
aF0.02596746915711604
aF0.008792064955809014
aF0.006644554922698486
aF0.0076709199767085205
aF0.0032740195536670453
aF0.005522436893575037
aF0.0021642301100011506
aF0.014012361759581928
aF0.0028594177230391016
aF0.004498606757036883
aF0.012236026878762959
aF0.01475747352583171
aF0.0053217704842797395
aF0.005162344499496029
aF0.03470037457934809
aF0.0031804420419948133
aF0.012430486759384499
aF0.004367142504315262
aF0.005334910135172763
aF0.00420825295819309
aF0.003401227004015917
aF0.01567022469022188
aF0.011541550850192369
aF0.006695672141861993
aF0.0264747079972282
aF0.013924275511658509
aF0.00973532825015876
aF0.0009645257872809552
aF0.006467582799392712
aF0.004121070871628067
aF0.005179482054369897
aF0.0012181880948030823
aF0.008077469272039986
aF0.03178631542089373
aF0.0013479021008898269
aF0.004541941501563777
aF0.0044601010303843705
aF0.008443290613979219
aF0.01881085788562621
aF0.0010834587024294185
aF0.002302602392695129
aF0.0043720605642294744
aF0.014538308170538127
aF0.017118435644485338
aF0.00799139555891688
aF0.011736943238820673
aF0.002621573034980689
aF0.014039948407716553
aF0.00838463205873655
aF0.022421962407121934
aF0.009544819756866435
aF0.018188055992821753
aF0.0071794916340463125
aF0.003705542188424597
aF0.012597135801698243
aF0.002085818426305177
aF0.007849075583459746
aF0.0018406648681241354
aF0.008141935018298005
aF0.0024907469068787837
aF0.009737112416780448
aF0.005918180949424125
aF0.015964470237972667
aF0.009754798409966946
aF0.004258413553278437
aF0.00471304365845485
aF0.02039417901871706
aF0.07055752790299431
aF0.02900406032951131
aF0.007025077378713092
aF0.020497401552271293
aF0.015333088168844987
aF0.0019645583778887237
aF0.01076012404712212
aF0.0031241517931345953
aF0.0043596031894576285
aF0.002518572682717383
aF0.01707513451879923
aF0.004740418274268868
aF0.004037445815841653
aF0.012331878673556047
aF0.0030198307639898946
aF0.016815715911541733
aF0.0022462447237268676
aF0.01273589622687357
aF0.007522476896963234
aF0.0021280880224041647
aF0.0024846057133114355
aF0.0009233185646299342
aF0.00778966461986779
aF0.003334584879469856
aF0.004233103440703462
aF0.010477624915645094
aF0.005715681593561974
aF0.005924328926220153
aF0.02237318708068279
aF0.00048058743741344936
aF0.009132115881866448
aF0.0001528851647284033
aF0.006307740933943518
aF0.0005631727688682898
aF0.0009384882312315556
aF0.003669933628869716
aF0.002747244222090007
aF0.009450904984232695
aF0.01549587063119748
aF0.0021464495584327618
aF0.0008157569586556071
aF0.006315084150917545
aF0.007971189289242262
aF0.03668163666044068
aF0.0004080933835321217
aF0.018078976794819988
aF0.003498047235039662
aF0.004174930964160904
aF0.0005323671789533811
aF0.000627432729153363
aF0.028109026792100485
aF0.02140893620766289
aF0.005386396946560799
aF0.0037036266789640835
aF0.003285875260850668
aF0.00827944518814464
aF0.019139021775290355
aF0.008066976597820848
aF0.022056704395541946
aF0.009610885994820177
aF0.004144925457159233
aF0.010237240905993952
aF0.0012020053880057576
aF0.01544050763339755
aF0.0054533597535584045
aF0.008130022464715078
aF0.0022067989961334316
aF0.01629591454633017
aF0.00991916287786282
aF0.010409405860260535
aF0.0037705062424815794
aF0.011376170707679012
aF0.0011915892775633916
aF0.0012844020076005055
aF0.011937728415644439
aF0.009172466392790778
aF0.0030591529525916725
aF0.01579180792302779
aF0.011087976266999774
aF0.0066639735516622785
aF0.012776256071988042
aF0.010877746334709589
aF0.0002754033622492925
aF0.0016701152551657624
aF0.002796893588692867
aF0.001364635553795439
aF0.005235239745670438
aF0.006616976760484987
aF0.017569374822093062
aF4.179314833615313e-05
aF0.0014940523125735164
aF0.00764601902636427
aF0.0038138785306818237
aF0.007702517425872641
aF0.003713842157291428
aF0.011196428254290257
aF0.009692628238413875
aF0.00523411252188514
aF0.006924336267790923
aF0.03544789358118038
aF0.006076720183294833
aF0.013509084577943581
aF0.00837887519625385
aF0.010950824791069076
aF0.004406266556362223
aF0.001527995119476934
aF0.006679884496459835
aF0.0010533486520640292
aF0.003752326951348331
aF0.008969204409046007
aF0.00045722611817609237
aF0.0013666994667103094
aF0.0010000979734651407
aF0.0006923265569365428
aF0.04176280693332177
aF0.005617003587873057
aF0.0037837276754791303
aF0.0029556024764200045
aF0.004620888982795024
aF0.0
aF0.0011354457589756463
aF0.0
aF0.002736883451244146
aF0.0035396526353029373
aF0.0047541679693963316
aF0.010175602809057337
aF0.012357260757025023
aF0.0
aF0.00012272390914186786
aF0.0022118018056235824
aF0.00018479367316576618
aF0.013123501234540895
aF0.006772724331371451
aF0.008050289927006021
aF0.003700420027748014
aF0.011219550536572705
aF0.0030632164055889163
aF0.002598921551898512
aF0.005346221624336421
aF0.0012069576449781991
aF0.0004411034447775404
aF0.0024058524435995998
aF0.003660343156637562
aF0.0029491718627455495
aF0.0008783531065616759
aF0.0004554844561455377
aF0.0019143143363981084
aF0.00040199048128634695
aa.